

Microchip Technology PIC LITE Macro Assembler V1.33 build 59893 
                                                                                               Tue Nov 04 21:11:45 2014

Microchip Technology Omniscient Code Generator (Lite mode) build 59893
     1                           	processor	16LF1783
     2                           	opt	pw 120
     3                           	opt	lm
     4                           	psect	text0,local,class=CODE,merge=1,delta=2
     5                           	psect	cinit,global,class=CODE,merge=1,delta=2
     6                           	psect	bssCOMMON,global,class=COMMON,space=1,delta=1
     7                           	psect	bssBANK0,global,class=BANK0,space=1,delta=1
     8                           	psect	bssBANK1,global,class=BANK1,space=1,delta=1
     9                           	psect	clrtext,global,class=CODE,delta=2
    10                           	psect	cstackBANK1,global,class=BANK1,space=1,delta=1
    11                           	psect	cstackCOMMON,global,class=COMMON,space=1,delta=1
    12                           	psect	cstackBANK0,global,class=BANK0,space=1,delta=1
    13                           	psect	maintext,global,class=CODE,merge=1,split=1,delta=2
    14                           	psect	text1,local,class=CODE,merge=1,delta=2
    15                           	psect	text2,local,class=CODE,merge=1,delta=2
    16                           	psect	text3,local,class=CODE,merge=1,delta=2
    17                           	psect	text4,local,class=CODE,merge=1,delta=2
    18                           	psect	text5,local,class=CODE,merge=1,delta=2
    19                           	psect	text6,local,class=CODE,merge=1,delta=2
    20                           	psect	text7,local,class=CODE,merge=1,delta=2
    21                           	psect	text8,local,class=CODE,merge=1,delta=2
    22                           	psect	text9,local,class=CODE,merge=1,delta=2
    23                           	psect	text10,local,class=CODE,merge=1,delta=2
    24                           	psect	text11,local,class=CODE,merge=1,delta=2
    25                           	psect	text12,local,class=CODE,merge=1,delta=2
    26                           	psect	text13,local,class=CODE,merge=1,delta=2
    27                           	psect	text14,local,class=CODE,merge=1,delta=2
    28                           	psect	text15,local,class=CODE,merge=1,delta=2
    29                           	psect	text16,local,class=CODE,merge=1,delta=2
    30                           	psect	text17,local,class=CODE,merge=1,delta=2
    31                           	psect	text18,local,class=CODE,merge=1,delta=2
    32                           	psect	intentry,global,class=CODE,delta=2
    33                           	psect	text20,local,class=CODE,merge=1,delta=2
    34                           	dabs	1,0x7E,2
    35  0000                     	;# 
    36  0001                     	;# 
    37  0002                     	;# 
    38  0003                     	;# 
    39  0004                     	;# 
    40  0005                     	;# 
    41  0006                     	;# 
    42  0007                     	;# 
    43  0008                     	;# 
    44  0009                     	;# 
    45  000A                     	;# 
    46  000B                     	;# 
    47  000C                     	;# 
    48  000D                     	;# 
    49  000E                     	;# 
    50  0010                     	;# 
    51  0011                     	;# 
    52  0012                     	;# 
    53  0014                     	;# 
    54  0015                     	;# 
    55  0016                     	;# 
    56  0016                     	;# 
    57  0017                     	;# 
    58  0018                     	;# 
    59  0019                     	;# 
    60  001A                     	;# 
    61  001B                     	;# 
    62  001C                     	;# 
    63  008C                     	;# 
    64  008D                     	;# 
    65  008E                     	;# 
    66  0090                     	;# 
    67  0091                     	;# 
    68  0092                     	;# 
    69  0094                     	;# 
    70  0095                     	;# 
    71  0096                     	;# 
    72  0097                     	;# 
    73  0098                     	;# 
    74  0099                     	;# 
    75  009A                     	;# 
    76  009B                     	;# 
    77  009B                     	;# 
    78  009C                     	;# 
    79  009D                     	;# 
    80  009E                     	;# 
    81  009F                     	;# 
    82  010C                     	;# 
    83  010D                     	;# 
    84  010E                     	;# 
    85  0111                     	;# 
    86  0112                     	;# 
    87  0113                     	;# 
    88  0114                     	;# 
    89  0115                     	;# 
    90  0116                     	;# 
    91  0117                     	;# 
    92  0118                     	;# 
    93  0119                     	;# 
    94  011D                     	;# 
    95  011D                     	;# 
    96  011E                     	;# 
    97  011F                     	;# 
    98  018C                     	;# 
    99  018D                     	;# 
   100  0191                     	;# 
   101  0191                     	;# 
   102  0192                     	;# 
   103  0193                     	;# 
   104  0193                     	;# 
   105  0193                     	;# 
   106  0194                     	;# 
   107  0195                     	;# 
   108  0196                     	;# 
   109  0199                     	;# 
   110  0199                     	;# 
   111  0199                     	;# 
   112  019A                     	;# 
   113  019A                     	;# 
   114  019A                     	;# 
   115  019B                     	;# 
   116  019B                     	;# 
   117  019B                     	;# 
   118  019B                     	;# 
   119  019B                     	;# 
   120  019C                     	;# 
   121  019C                     	;# 
   122  019C                     	;# 
   123  019D                     	;# 
   124  019D                     	;# 
   125  019D                     	;# 
   126  019E                     	;# 
   127  019E                     	;# 
   128  019E                     	;# 
   129  019F                     	;# 
   130  019F                     	;# 
   131  019F                     	;# 
   132  019F                     	;# 
   133  019F                     	;# 
   134  020C                     	;# 
   135  020D                     	;# 
   136  020E                     	;# 
   137  0210                     	;# 
   138  0211                     	;# 
   139  0211                     	;# 
   140  0212                     	;# 
   141  0212                     	;# 
   142  0213                     	;# 
   143  0213                     	;# 
   144  0214                     	;# 
   145  0214                     	;# 
   146  0215                     	;# 
   147  0215                     	;# 
   148  0215                     	;# 
   149  0216                     	;# 
   150  0216                     	;# 
   151  0217                     	;# 
   152  0217                     	;# 
   153  028C                     	;# 
   154  028D                     	;# 
   155  028E                     	;# 
   156  0291                     	;# 
   157  0291                     	;# 
   158  0292                     	;# 
   159  0293                     	;# 
   160  0298                     	;# 
   161  0298                     	;# 
   162  0299                     	;# 
   163  029A                     	;# 
   164  030C                     	;# 
   165  030D                     	;# 
   166  030E                     	;# 
   167  038C                     	;# 
   168  038D                     	;# 
   169  038E                     	;# 
   170  0390                     	;# 
   171  0391                     	;# 
   172  0392                     	;# 
   173  0393                     	;# 
   174  0394                     	;# 
   175  0395                     	;# 
   176  0396                     	;# 
   177  0397                     	;# 
   178  0398                     	;# 
   179  0399                     	;# 
   180  039D                     	;# 
   181  039E                     	;# 
   182  039F                     	;# 
   183  0511                     	;# 
   184  0513                     	;# 
   185  051A                     	;# 
   186  0811                     	;# 
   187  0812                     	;# 
   188  0813                     	;# 
   189  0814                     	;# 
   190  0815                     	;# 
   191  0816                     	;# 
   192  0817                     	;# 
   193  0818                     	;# 
   194  0819                     	;# 
   195  081A                     	;# 
   196  081B                     	;# 
   197  081C                     	;# 
   198  081D                     	;# 
   199  081E                     	;# 
   200  081F                     	;# 
   201  0820                     	;# 
   202  0821                     	;# 
   203  0821                     	;# 
   204  0822                     	;# 
   205  0823                     	;# 
   206  0823                     	;# 
   207  0824                     	;# 
   208  0825                     	;# 
   209  0825                     	;# 
   210  0826                     	;# 
   211  0827                     	;# 
   212  0827                     	;# 
   213  0828                     	;# 
   214  0829                     	;# 
   215  082A                     	;# 
   216  082B                     	;# 
   217  082C                     	;# 
   218  082D                     	;# 
   219  082E                     	;# 
   220  082F                     	;# 
   221  0831                     	;# 
   222  0832                     	;# 
   223  0833                     	;# 
   224  0834                     	;# 
   225  0835                     	;# 
   226  0836                     	;# 
   227  0837                     	;# 
   228  0838                     	;# 
   229  0839                     	;# 
   230  083A                     	;# 
   231  083B                     	;# 
   232  083C                     	;# 
   233  083D                     	;# 
   234  083E                     	;# 
   235  083F                     	;# 
   236  0840                     	;# 
   237  0841                     	;# 
   238  0841                     	;# 
   239  0842                     	;# 
   240  0843                     	;# 
   241  0843                     	;# 
   242  0844                     	;# 
   243  0845                     	;# 
   244  0845                     	;# 
   245  0846                     	;# 
   246  0847                     	;# 
   247  0847                     	;# 
   248  0848                     	;# 
   249  0849                     	;# 
   250  084A                     	;# 
   251  084B                     	;# 
   252  084C                     	;# 
   253  084D                     	;# 
   254  084E                     	;# 
   255  084F                     	;# 
   256  0FE4                     	;# 
   257  0FE5                     	;# 
   258  0FE6                     	;# 
   259  0FE7                     	;# 
   260  0FE8                     	;# 
   261  0FE9                     	;# 
   262  0FEA                     	;# 
   263  0FEB                     	;# 
   264  0FED                     	;# 
   265  0FEE                     	;# 
   266  0FEF                     	;# 
   267  0000                     	;# 
   268  0001                     	;# 
   269  0002                     	;# 
   270  0003                     	;# 
   271  0004                     	;# 
   272  0005                     	;# 
   273  0006                     	;# 
   274  0007                     	;# 
   275  0008                     	;# 
   276  0009                     	;# 
   277  000A                     	;# 
   278  000B                     	;# 
   279  000C                     	;# 
   280  000D                     	;# 
   281  000E                     	;# 
   282  0010                     	;# 
   283  0011                     	;# 
   284  0012                     	;# 
   285  0014                     	;# 
   286  0015                     	;# 
   287  0016                     	;# 
   288  0016                     	;# 
   289  0017                     	;# 
   290  0018                     	;# 
   291  0019                     	;# 
   292  001A                     	;# 
   293  001B                     	;# 
   294  001C                     	;# 
   295  008C                     	;# 
   296  008D                     	;# 
   297  008E                     	;# 
   298  0090                     	;# 
   299  0091                     	;# 
   300  0092                     	;# 
   301  0094                     	;# 
   302  0095                     	;# 
   303  0096                     	;# 
   304  0097                     	;# 
   305  0098                     	;# 
   306  0099                     	;# 
   307  009A                     	;# 
   308  009B                     	;# 
   309  009B                     	;# 
   310  009C                     	;# 
   311  009D                     	;# 
   312  009E                     	;# 
   313  009F                     	;# 
   314  010C                     	;# 
   315  010D                     	;# 
   316  010E                     	;# 
   317  0111                     	;# 
   318  0112                     	;# 
   319  0113                     	;# 
   320  0114                     	;# 
   321  0115                     	;# 
   322  0116                     	;# 
   323  0117                     	;# 
   324  0118                     	;# 
   325  0119                     	;# 
   326  011D                     	;# 
   327  011D                     	;# 
   328  011E                     	;# 
   329  011F                     	;# 
   330  018C                     	;# 
   331  018D                     	;# 
   332  0191                     	;# 
   333  0191                     	;# 
   334  0192                     	;# 
   335  0193                     	;# 
   336  0193                     	;# 
   337  0193                     	;# 
   338  0194                     	;# 
   339  0195                     	;# 
   340  0196                     	;# 
   341  0197                     	;# 
   342  0199                     	;# 
   343  0199                     	;# 
   344  0199                     	;# 
   345  019A                     	;# 
   346  019A                     	;# 
   347  019A                     	;# 
   348  019B                     	;# 
   349  019B                     	;# 
   350  019B                     	;# 
   351  019B                     	;# 
   352  019B                     	;# 
   353  019C                     	;# 
   354  019C                     	;# 
   355  019C                     	;# 
   356  019D                     	;# 
   357  019D                     	;# 
   358  019D                     	;# 
   359  019E                     	;# 
   360  019E                     	;# 
   361  019E                     	;# 
   362  019F                     	;# 
   363  019F                     	;# 
   364  019F                     	;# 
   365  019F                     	;# 
   366  019F                     	;# 
   367  020C                     	;# 
   368  020D                     	;# 
   369  020E                     	;# 
   370  0210                     	;# 
   371  0211                     	;# 
   372  0211                     	;# 
   373  0212                     	;# 
   374  0212                     	;# 
   375  0213                     	;# 
   376  0213                     	;# 
   377  0214                     	;# 
   378  0214                     	;# 
   379  0215                     	;# 
   380  0215                     	;# 
   381  0215                     	;# 
   382  0216                     	;# 
   383  0216                     	;# 
   384  0217                     	;# 
   385  0217                     	;# 
   386  028C                     	;# 
   387  028D                     	;# 
   388  028E                     	;# 
   389  0291                     	;# 
   390  0291                     	;# 
   391  0292                     	;# 
   392  0293                     	;# 
   393  0298                     	;# 
   394  0298                     	;# 
   395  0299                     	;# 
   396  029A                     	;# 
   397  030C                     	;# 
   398  030D                     	;# 
   399  030E                     	;# 
   400  038C                     	;# 
   401  038D                     	;# 
   402  038E                     	;# 
   403  0390                     	;# 
   404  0391                     	;# 
   405  0392                     	;# 
   406  0393                     	;# 
   407  0394                     	;# 
   408  0395                     	;# 
   409  0396                     	;# 
   410  0397                     	;# 
   411  0398                     	;# 
   412  0399                     	;# 
   413  039D                     	;# 
   414  039E                     	;# 
   415  039F                     	;# 
   416  0511                     	;# 
   417  0513                     	;# 
   418  051A                     	;# 
   419  0811                     	;# 
   420  0812                     	;# 
   421  0813                     	;# 
   422  0814                     	;# 
   423  0815                     	;# 
   424  0816                     	;# 
   425  0817                     	;# 
   426  0818                     	;# 
   427  0819                     	;# 
   428  081A                     	;# 
   429  081B                     	;# 
   430  081C                     	;# 
   431  081D                     	;# 
   432  081E                     	;# 
   433  081F                     	;# 
   434  0820                     	;# 
   435  0821                     	;# 
   436  0821                     	;# 
   437  0822                     	;# 
   438  0823                     	;# 
   439  0823                     	;# 
   440  0824                     	;# 
   441  0825                     	;# 
   442  0825                     	;# 
   443  0826                     	;# 
   444  0827                     	;# 
   445  0827                     	;# 
   446  0828                     	;# 
   447  0829                     	;# 
   448  082A                     	;# 
   449  082B                     	;# 
   450  082C                     	;# 
   451  082D                     	;# 
   452  082E                     	;# 
   453  082F                     	;# 
   454  0831                     	;# 
   455  0832                     	;# 
   456  0833                     	;# 
   457  0834                     	;# 
   458  0835                     	;# 
   459  0836                     	;# 
   460  0837                     	;# 
   461  0838                     	;# 
   462  0839                     	;# 
   463  083A                     	;# 
   464  083B                     	;# 
   465  083C                     	;# 
   466  083D                     	;# 
   467  083E                     	;# 
   468  083F                     	;# 
   469  0840                     	;# 
   470  0841                     	;# 
   471  0841                     	;# 
   472  0842                     	;# 
   473  0843                     	;# 
   474  0843                     	;# 
   475  0844                     	;# 
   476  0845                     	;# 
   477  0845                     	;# 
   478  0846                     	;# 
   479  0847                     	;# 
   480  0847                     	;# 
   481  0848                     	;# 
   482  0849                     	;# 
   483  084A                     	;# 
   484  084B                     	;# 
   485  084C                     	;# 
   486  084D                     	;# 
   487  084E                     	;# 
   488  084F                     	;# 
   489  0FE4                     	;# 
   490  0FE5                     	;# 
   491  0FE6                     	;# 
   492  0FE7                     	;# 
   493  0FE8                     	;# 
   494  0FE9                     	;# 
   495  0FEA                     	;# 
   496  0FEB                     	;# 
   497  0FED                     	;# 
   498  0FEE                     	;# 
   499  0FEF                     	;# 
   500  0000                     	;# 
   501  0001                     	;# 
   502  0002                     	;# 
   503  0003                     	;# 
   504  0004                     	;# 
   505  0005                     	;# 
   506  0006                     	;# 
   507  0007                     	;# 
   508  0008                     	;# 
   509  0009                     	;# 
   510  000A                     	;# 
   511  000B                     	;# 
   512  000C                     	;# 
   513  000D                     	;# 
   514  000E                     	;# 
   515  0010                     	;# 
   516  0011                     	;# 
   517  0012                     	;# 
   518  0014                     	;# 
   519  0015                     	;# 
   520  0016                     	;# 
   521  0016                     	;# 
   522  0017                     	;# 
   523  0018                     	;# 
   524  0019                     	;# 
   525  001A                     	;# 
   526  001B                     	;# 
   527  001C                     	;# 
   528  008C                     	;# 
   529  008D                     	;# 
   530  008E                     	;# 
   531  0090                     	;# 
   532  0091                     	;# 
   533  0092                     	;# 
   534  0094                     	;# 
   535  0095                     	;# 
   536  0096                     	;# 
   537  0097                     	;# 
   538  0098                     	;# 
   539  0099                     	;# 
   540  009A                     	;# 
   541  009B                     	;# 
   542  009B                     	;# 
   543  009C                     	;# 
   544  009D                     	;# 
   545  009E                     	;# 
   546  009F                     	;# 
   547  010C                     	;# 
   548  010D                     	;# 
   549  010E                     	;# 
   550  0111                     	;# 
   551  0112                     	;# 
   552  0113                     	;# 
   553  0114                     	;# 
   554  0115                     	;# 
   555  0116                     	;# 
   556  0117                     	;# 
   557  0118                     	;# 
   558  0119                     	;# 
   559  011D                     	;# 
   560  011D                     	;# 
   561  011E                     	;# 
   562  011F                     	;# 
   563  018C                     	;# 
   564  018D                     	;# 
   565  0191                     	;# 
   566  0191                     	;# 
   567  0192                     	;# 
   568  0193                     	;# 
   569  0193                     	;# 
   570  0193                     	;# 
   571  0194                     	;# 
   572  0195                     	;# 
   573  0196                     	;# 
   574  0199                     	;# 
   575  0199                     	;# 
   576  0199                     	;# 
   577  019A                     	;# 
   578  019A                     	;# 
   579  019A                     	;# 
   580  019B                     	;# 
   581  019B                     	;# 
   582  019B                     	;# 
   583  019B                     	;# 
   584  019B                     	;# 
   585  019C                     	;# 
   586  019C                     	;# 
   587  019C                     	;# 
   588  019D                     	;# 
   589  019D                     	;# 
   590  019D                     	;# 
   591  019E                     	;# 
   592  019E                     	;# 
   593  019E                     	;# 
   594  019F                     	;# 
   595  019F                     	;# 
   596  019F                     	;# 
   597  019F                     	;# 
   598  019F                     	;# 
   599  020C                     	;# 
   600  020D                     	;# 
   601  020E                     	;# 
   602  0210                     	;# 
   603  0211                     	;# 
   604  0211                     	;# 
   605  0212                     	;# 
   606  0212                     	;# 
   607  0213                     	;# 
   608  0213                     	;# 
   609  0214                     	;# 
   610  0214                     	;# 
   611  0215                     	;# 
   612  0215                     	;# 
   613  0215                     	;# 
   614  0216                     	;# 
   615  0216                     	;# 
   616  0217                     	;# 
   617  0217                     	;# 
   618  028C                     	;# 
   619  028D                     	;# 
   620  028E                     	;# 
   621  0291                     	;# 
   622  0291                     	;# 
   623  0292                     	;# 
   624  0293                     	;# 
   625  0298                     	;# 
   626  0298                     	;# 
   627  0299                     	;# 
   628  029A                     	;# 
   629  030C                     	;# 
   630  030D                     	;# 
   631  030E                     	;# 
   632  038C                     	;# 
   633  038D                     	;# 
   634  038E                     	;# 
   635  0390                     	;# 
   636  0391                     	;# 
   637  0392                     	;# 
   638  0393                     	;# 
   639  0394                     	;# 
   640  0395                     	;# 
   641  0396                     	;# 
   642  0397                     	;# 
   643  0398                     	;# 
   644  0399                     	;# 
   645  039D                     	;# 
   646  039E                     	;# 
   647  039F                     	;# 
   648  0511                     	;# 
   649  0513                     	;# 
   650  051A                     	;# 
   651  0811                     	;# 
   652  0812                     	;# 
   653  0813                     	;# 
   654  0814                     	;# 
   655  0815                     	;# 
   656  0816                     	;# 
   657  0817                     	;# 
   658  0818                     	;# 
   659  0819                     	;# 
   660  081A                     	;# 
   661  081B                     	;# 
   662  081C                     	;# 
   663  081D                     	;# 
   664  081E                     	;# 
   665  081F                     	;# 
   666  0820                     	;# 
   667  0821                     	;# 
   668  0821                     	;# 
   669  0822                     	;# 
   670  0823                     	;# 
   671  0823                     	;# 
   672  0824                     	;# 
   673  0825                     	;# 
   674  0825                     	;# 
   675  0826                     	;# 
   676  0827                     	;# 
   677  0827                     	;# 
   678  0828                     	;# 
   679  0829                     	;# 
   680  082A                     	;# 
   681  082B                     	;# 
   682  082C                     	;# 
   683  082D                     	;# 
   684  082E                     	;# 
   685  082F                     	;# 
   686  0831                     	;# 
   687  0832                     	;# 
   688  0833                     	;# 
   689  0834                     	;# 
   690  0835                     	;# 
   691  0836                     	;# 
   692  0837                     	;# 
   693  0838                     	;# 
   694  0839                     	;# 
   695  083A                     	;# 
   696  083B                     	;# 
   697  083C                     	;# 
   698  083D                     	;# 
   699  083E                     	;# 
   700  083F                     	;# 
   701  0840                     	;# 
   702  0841                     	;# 
   703  0841                     	;# 
   704  0842                     	;# 
   705  0843                     	;# 
   706  0843                     	;# 
   707  0844                     	;# 
   708  0845                     	;# 
   709  0845                     	;# 
   710  0846                     	;# 
   711  0847                     	;# 
   712  0847                     	;# 
   713  0848                     	;# 
   714  0849                     	;# 
   715  084A                     	;# 
   716  084B                     	;# 
   717  084C                     	;# 
   718  084D                     	;# 
   719  084E                     	;# 
   720  084F                     	;# 
   721  0FE4                     	;# 
   722  0FE5                     	;# 
   723  0FE6                     	;# 
   724  0FE7                     	;# 
   725  0FE8                     	;# 
   726  0FE9                     	;# 
   727  0FEA                     	;# 
   728  0FEB                     	;# 
   729  0FED                     	;# 
   730  0FEE                     	;# 
   731  0FEF                     	;# 
   732  000B                     _INTCONbits	set	11
   733  0011                     _PIR1bits	set	17
   734  000C                     _PORTAbits	set	12
   735  000D                     _PORTBbits	set	13
   736  000E                     _PORTCbits	set	14
   737  0015                     _TMR0	set	21
   738  005F                     _GIE	set	95
   739  005E                     _PEIE	set	94
   740  005D                     _TMR0IE	set	93
   741  005A                     _TMR0IF	set	90
   742  0099                     _OSCCONbits	set	153
   743  008C                     _TRISAbits	set	140
   744  008D                     _TRISBbits	set	141
   745  008E                     _TRISCbits	set	142
   746  0097                     _WDTCONbits	set	151
   747  04A8                     _PS0	set	1192
   748  04A9                     _PS1	set	1193
   749  04AA                     _PS2	set	1194
   750  04AB                     _PSA	set	1195
   751  04AD                     _TMR0CS	set	1197
   752  0118                     _DACCON0bits	set	280
   753  0119                     _DACCON1	set	281
   754  0872                     _LATC2	set	2162
   755  018C                     _ANSELAbits	set	396
   756  0211                     _SSPBUF	set	529
   757  0215                     _SSPCON1bits	set	533
   758  0214                     _SSPSTATbits	set	532
   759  0393                     _IOCAF	set	915
   760  0393                     _IOCAFbits	set	915
   761  0392                     _IOCANbits	set	914
   762  0391                     _IOCAPbits	set	913
   763  0511                     _OPA1CONbits	set	1297
   764                           
   765                           	psect	text0
   766  0000                     __ptext0:	
   767                           ; #config settings
   768                           
   769                           
   770                           ;psect for function _ReadBuffer
   771  0000                     
   772                           	psect	cinit
   773  003C                     start_initialization:	
   774  003C                     __initialization:	
   775                           
   776                           ; Clear objects allocated to COMMON
   777  003C  01F8               	clrf	__pbssCOMMON& (0+127)
   778  003D  01F9               	clrf	(__pbssCOMMON+1)& (0+127)
   779  003E  01FA               	clrf	(__pbssCOMMON+2)& (0+127)
   780                           
   781                           ; Clear objects allocated to BANK0
   782  003F  01EB               	clrf	__pbssBANK0& (0+127)
   783  0040  01EC               	clrf	(__pbssBANK0+1)& (0+127)
   784  0041  01ED               	clrf	(__pbssBANK0+2)& (0+127)
   785                           
   786                           ; Clear objects allocated to BANK1
   787  0042  30A0               	movlw	low __pbssBANK1
   788  0043  0084               	movwf	4
   789  0044  3000               	movlw	high __pbssBANK1
   790  0045  0085               	movwf	5
   791  0046  303D               	movlw	61
   792  0047  3187  2751         	fcall	clear_ram0
   793  0049                     end_of_initialization:	
   794                           ;End of C runtime variable initialization code
   795                           
   796  0049                     __end_of__initialization:	
   797  0049  107E               	bcf	pic14e$flags,0	;clear compiler interrupt flag
   798  004A  0020               	movlb	0
   799  004B  3186  2E46         	ljmp	_main	;jump to C main() function
   800                           
   801                           	psect	bssCOMMON
   802  0078                     __pbssCOMMON:	
   803  0078                     _start:	
   804  0078                     	ds	2
   805  007A                     _dacOutputFlag:	
   806  007A                     	ds	1
   807                           
   808                           	psect	bssBANK0
   809  006B                     __pbssBANK0:	
   810  006B                     _NorthSouth:	
   811  006B                     	ds	1
   812  006C                     _playbackFlag:	
   813  006C                     	ds	1
   814  006D                     _transmitFlag:	
   815  006D                     	ds	1
   816                           
   817                           	psect	bssBANK1
   818  00A0                     __pbssBANK1:	
   819  00A0                     _buffer:	
   820  00A0                     	ds	52
   821  00D4                     _Latitude:	
   822  00D4                     	ds	3
   823  00D7                     _Longitude:	
   824  00D7                     	ds	3
   825  00DA                     _end:	
   826  00DA                     	ds	2
   827  00DC                     _EastWest:	
   828  00DC                     	ds	1
   829                           
   830                           	psect	clrtext
   831  0751                     clear_ram0:	
   832                           ;	Called with FSR0 containing the base address, and
   833                           ;	WREG with the size to clear
   834                           
   835  0751  0064               	clrwdt	;clear the watchdog before getting into this loop
   836  0752                     clrloop0:	
   837  0752  0180               	clrf	0	;clear RAM location pointed to by FSR
   838  0753  3101               	addfsr 0,1
   839  0754  0B89               	decfsz	9,f	;Have we reached the end of clearing yet?
   840  0755  2F52               	goto	clrloop0	;have we reached the end yet?
   841  0756  3400               	retlw	0	;all done for this memory range, return
   842                           
   843                           	psect	cstackBANK1
   844  00DD                     __pcstackBANK1:	
   845  00DD                     ?_main:	
   846  00DD                     main@argc:	
   847                           ; 2 bytes @ 0x0
   848                           
   849                           
   850                           ; 2 bytes @ 0x0
   851  00DD                     	ds	2
   852  00DF                     main@argv:	
   853                           
   854                           ; 2 bytes @ 0x2
   855  00DF                     	ds	2
   856                           
   857                           	psect	cstackCOMMON
   858  0070                     __pcstackCOMMON:	
   859  0070                     ?_PlaybackMode:	
   860  0070                     ?_WriteBuffer:	
   861                           ; 0 bytes @ 0x0
   862                           
   863  0070                     ?_GPStoAudio:	
   864                           ; 0 bytes @ 0x0
   865                           
   866  0070                     ?_InitCLK:	
   867                           ; 0 bytes @ 0x0
   868                           
   869  0070                     ?_InitGPIO:	
   870                           ; 0 bytes @ 0x0
   871                           
   872  0070                     ?_InitDAC:	
   873                           ; 0 bytes @ 0x0
   874                           
   875  0070                     ?_InitSPI:	
   876                           ; 0 bytes @ 0x0
   877                           
   878  0070                     ?_InitTimer0:	
   879                           ; 0 bytes @ 0x0
   880                           
   881  0070                     ?_InitWatchdog:	
   882                           ; 0 bytes @ 0x0
   883                           
   884  0070                     ?_CheckDisconnect:	
   885                           ; 0 bytes @ 0x0
   886                           
   887  0070                     ?_TransmitMode:	
   888                           ; 0 bytes @ 0x0
   889                           
   890  0070                     ?_WriteSPI:	
   891                           ; 0 bytes @ 0x0
   892                           
   893  0070                     ??_ReadBuffer:	
   894                           ; 0 bytes @ 0x0
   895                           
   896  0070                     ?_isr:	
   897                           ; 0 bytes @ 0x0
   898                           
   899  0070                     ?_ReadSPI:	
   900                           ; 0 bytes @ 0x0
   901                           
   902  0070                     ?_ReadStatusSPI:	
   903                           ; 1 bytes @ 0x0
   904                           
   905  0070                     ?_ReadBuffer:	
   906                           ; 1 bytes @ 0x0
   907                           
   908                           
   909                           ; 1 bytes @ 0x0
   910  0070                     	ds	1
   911  0071                     ReadBuffer@read_data:	
   912                           
   913                           ; 1 bytes @ 0x1
   914  0071                     	ds	1
   915  0072                     ??_isr:	
   916                           
   917                           ; 0 bytes @ 0x2
   918  0072                     	ds	1
   919  0073                     ??_WriteBuffer:	
   920  0073                     ??_ReadSPI:	
   921                           ; 0 bytes @ 0x3
   922                           
   923  0073                     ??_InitCLK:	
   924                           ; 0 bytes @ 0x3
   925                           
   926  0073                     ??_InitGPIO:	
   927                           ; 0 bytes @ 0x3
   928                           
   929  0073                     ??_InitDAC:	
   930                           ; 0 bytes @ 0x3
   931                           
   932  0073                     ??_InitSPI:	
   933                           ; 0 bytes @ 0x3
   934                           
   935  0073                     ??_InitTimer0:	
   936                           ; 0 bytes @ 0x3
   937                           
   938  0073                     ??_InitWatchdog:	
   939                           ; 0 bytes @ 0x3
   940                           
   941  0073                     ??_CheckDisconnect:	
   942                           ; 0 bytes @ 0x3
   943                           
   944  0073                     ??_WriteSPI:	
   945                           ; 0 bytes @ 0x3
   946                           
   947  0073                     ?___awmod:	
   948                           ; 0 bytes @ 0x3
   949                           
   950  0073                     ___awmod@divisor:	
   951                           ; 2 bytes @ 0x3
   952                           
   953                           
   954                           ; 2 bytes @ 0x3
   955  0073                     	ds	1
   956  0074                     ReadSPI@dataByte:	
   957  0074                     WriteBuffer@data:	
   958                           ; 1 bytes @ 0x4
   959                           
   960                           
   961                           ; 1 bytes @ 0x4
   962  0074                     	ds	1
   963  0075                     WriteSPI@buffer:	
   964  0075                     ___awmod@dividend:	
   965                           ; 2 bytes @ 0x5
   966                           
   967                           
   968                           ; 2 bytes @ 0x5
   969  0075                     	ds	2
   970  0077                     ??___awmod:	
   971  0077                     WriteSPI@databyte:	
   972                           ; 0 bytes @ 0x7
   973                           
   974                           
   975                           ; 1 bytes @ 0x7
   976  0077                     	ds	1
   977  0078                     ??_TransmitMode:	
   978  0078                     ??_main:	
   979                           ; 0 bytes @ 0x8
   980                           
   981                           
   982                           	psect	cstackBANK0
   983  0020                     __pcstackBANK0:	
   984                           ; 0 bytes @ 0x8
   985                           
   986  0020                     ??_ReadStatusSPI:	
   987  0020                     ___awmod@counter:	
   988                           ; 0 bytes @ 0x0
   989                           
   990                           
   991                           ; 1 bytes @ 0x0
   992  0020                     	ds	1
   993  0021                     ReadStatusSPI@dataRead:	
   994  0021                     ___awmod@sign:	
   995                           ; 1 bytes @ 0x1
   996                           
   997                           
   998                           ; 1 bytes @ 0x1
   999  0021                     	ds	1
  1000  0022                     ?_ReadOverheadSPI:	
  1001  0022                     ?___awdiv:	
  1002                           ; 0 bytes @ 0x2
  1003                           
  1004  0022                     ___awdiv@divisor:	
  1005                           ; 2 bytes @ 0x2
  1006                           
  1007  0022                     ReadOverheadSPI@address:	
  1008                           ; 2 bytes @ 0x2
  1009                           
  1010                           
  1011                           ; 4 bytes @ 0x2
  1012  0022                     	ds	2
  1013  0024                     ___awdiv@dividend:	
  1014                           
  1015                           ; 2 bytes @ 0x4
  1016  0024                     	ds	2
  1017  0026                     ??_ReadOverheadSPI:	
  1018  0026                     ??___awdiv:	
  1019                           ; 0 bytes @ 0x6
  1020                           
  1021                           
  1022                           ; 0 bytes @ 0x6
  1023  0026                     	ds	1
  1024  0027                     ___awdiv@counter:	
  1025                           
  1026                           ; 1 bytes @ 0x7
  1027  0027                     	ds	1
  1028  0028                     ___awdiv@sign:	
  1029                           
  1030                           ; 1 bytes @ 0x8
  1031  0028                     	ds	1
  1032  0029                     ___awdiv@quotient:	
  1033                           
  1034                           ; 2 bytes @ 0x9
  1035  0029                     	ds	3
  1036  002C                     ReadOverheadSPI@StatusReg:	
  1037                           
  1038                           ; 2 bytes @ 0xC
  1039  002C                     	ds	2
  1040  002E                     ReadOverheadSPI@addressBytes:	
  1041                           
  1042                           ; 3 bytes @ 0xE
  1043  002E                     	ds	3
  1044  0031                     ?_PlayAddress:	
  1045  0031                     PlayAddress@startAddress:	
  1046                           ; 0 bytes @ 0x11
  1047                           
  1048                           
  1049                           ; 4 bytes @ 0x11
  1050  0031                     	ds	4
  1051  0035                     PlayAddress@endAddress:	
  1052                           
  1053                           ; 4 bytes @ 0x15
  1054  0035                     	ds	4
  1055  0039                     ??_PlayAddress:	
  1056                           
  1057                           ; 0 bytes @ 0x19
  1058  0039                     	ds	4
  1059  003D                     PlayAddress@curr_address:	
  1060                           
  1061                           ; 4 bytes @ 0x1D
  1062  003D                     	ds	4
  1063  0041                     _PlayAddress$633:	
  1064                           
  1065                           ; 2 bytes @ 0x21
  1066  0041                     	ds	2
  1067  0043                     ??_GPStoAudio:	
  1068                           
  1069                           ; 0 bytes @ 0x23
  1070  0043                     	ds	3
  1071  0046                     GPStoAudio@datas:	
  1072                           
  1073                           ; 21 bytes @ 0x26
  1074  0046                     	ds	21
  1075  005B                     GPStoAudio@x:	
  1076                           
  1077                           ; 2 bytes @ 0x3B
  1078  005B                     	ds	2
  1079  005D                     ??_PlaybackMode:	
  1080                           
  1081                           ; 0 bytes @ 0x3D
  1082  005D                     	ds	4
  1083  0061                     PlaybackMode@curr_address:	
  1084                           
  1085                           ; 4 bytes @ 0x41
  1086  0061                     	ds	4
  1087  0065                     _PlaybackMode$646:	
  1088                           
  1089                           ; 2 bytes @ 0x45
  1090  0065                     	ds	2
  1091  0067                     PlaybackMode@end_address:	
  1092                           
  1093                           ; 4 bytes @ 0x47
  1094  0067                     	ds	4
  1095                           
  1096                           	psect	maintext
  1097  0646                     __pmaintext:	
  1098 ;;
  1099 ;;Main: autosize = 0, tempsize = 0, incstack = 0, save=0
  1100 ;;
  1101 ;; *************** function _main *****************
  1102 ;; Defined at:
  1103 ;;		line 54 in file "beacon_main.c"
  1104 ;; Parameters:    Size  Location     Type
  1105 ;;  argc            2    0[BANK1 ] int 
  1106 ;;  argv            2    2[BANK1 ] PTR PTR unsigned char 
  1107 ;; Auto vars:     Size  Location     Type
  1108 ;;		None
  1109 ;; Return value:  Size  Location     Type
  1110 ;;                  2    0[BANK1 ] int 
  1111 ;; Registers used:
  1112 ;;		wreg, fsr0l, fsr0h, fsr1l, fsr1h, status,2, status,0, pclath, cstack
  1113 ;; Tracked objects:
  1114 ;;		On entry : 17F/0
  1115 ;;		On exit  : 0/0
  1116 ;;		Unchanged: 0/0
  1117 ;; Data sizes:     COMMON   BANK0   BANK1   BANK2   BANK3   BANK4   BANK5
  1118 ;;      Params:         0       0       4       0       0       0       0
  1119 ;;      Locals:         0       0       0       0       0       0       0
  1120 ;;      Temps:          0       0       0       0       0       0       0
  1121 ;;      Totals:         0       0       4       0       0       0       0
  1122 ;;Total ram usage:        4 bytes
  1123 ;; Hardware stack levels required when called:    9
  1124 ;; This function calls:
  1125 ;;		_CheckDisconnect
  1126 ;;		_InitCLK
  1127 ;;		_InitDAC
  1128 ;;		_InitGPIO
  1129 ;;		_InitSPI
  1130 ;;		_InitTimer0
  1131 ;;		_InitWatchdog
  1132 ;;		_PlaybackMode
  1133 ;;		_TransmitMode
  1134 ;; This function is called by:
  1135 ;;		Startup code after reset
  1136 ;; This function uses a non-reentrant model
  1137 ;;
  1138                           
  1139                           
  1140                           ;psect for function _main
  1141  0646                     _main:	
  1142                           
  1143                           ;beacon_main.c: 58: InitCLK();
  1144                           
  1145                           ;incstack = 0
  1146                           ; Regs used in _main: [wreg-fsr1h+status,2+status,0+pclath+cstack]
  1147  0646  3187  273B  3186   	fcall	_InitCLK
  1148                           
  1149                           ;beacon_main.c: 59: InitGPIO();
  1150  0649  3186  267C  3186   	fcall	_InitGPIO
  1151                           
  1152                           ;beacon_main.c: 60: InitDAC();
  1153  064C  3186  26CB  3186   	fcall	_InitDAC
  1154                           
  1155                           ;beacon_main.c: 61: InitSPI();
  1156  064F  3186  26DE  3186   	fcall	_InitSPI
  1157                           
  1158                           ;beacon_main.c: 62: InitTimer0();
  1159  0652  3187  2722  3186   	fcall	_InitTimer0
  1160                           
  1161                           ;beacon_main.c: 63: InitWatchdog();
  1162  0655  3187  274A  3186   	fcall	_InitWatchdog
  1163                           
  1164                           ;beacon_main.c: 66: PEIE = 1;
  1165  0658  170B               	bsf	11,6	;volatile
  1166                           
  1167                           ;beacon_main.c: 67: GIE = 1;
  1168  0659  178B               	bsf	11,7	;volatile
  1169                           
  1170                           ;beacon_main.c: 69: LATC2 = (1);
  1171  065A  0022               	movlb	2	; select bank2
  1172  065B  150E               	bsf	14,2	;volatile
  1173                           
  1174                           ;beacon_main.c: 72: SSPCON1bits.SSPEN=0;
  1175  065C  0024               	movlb	4	; select bank4
  1176  065D  1295               	bcf	21,5	;volatile
  1177                           
  1178                           ;beacon_main.c: 73: PORTCbits.RC5 = 0;
  1179  065E  0020               	movlb	0	; select bank0
  1180  065F  128E               	bcf	14,5	;volatile
  1181  0660                     l2325:	
  1182                           ;beacon_main.c: 75: while(1)
  1183                           
  1184                           
  1185                           ;beacon_main.c: 76: {
  1186                           ;beacon_main.c: 77: LATC2 = (1);
  1187  0660  0022               	movlb	2	; select bank2
  1188  0661  150E               	bsf	14,2	;volatile
  1189                           
  1190                           ;beacon_main.c: 80: CheckDisconnect();
  1191  0662  3187  2713  3186   	fcall	_CheckDisconnect
  1192                           
  1193                           ;beacon_main.c: 82: if(playbackFlag&&!PORTAbits.RA4)
  1194  0665  0020               	movlb	0	; select bank0
  1195  0666  086C               	movf	_playbackFlag,w
  1196  0667  1D03               	skipz
  1197  0668  1A0C               	btfsc	12,4	;volatile
  1198  0669  2E6F               	goto	l2337
  1199                           
  1200                           ;beacon_main.c: 83: {
  1201                           ;beacon_main.c: 84: PlaybackMode();
  1202  066A  3183  2395  3186   	fcall	_PlaybackMode
  1203                           
  1204                           ;beacon_main.c: 85: playbackFlag = 0;
  1205  066D  0020               	movlb	0	; select bank0
  1206  066E  01EC               	clrf	_playbackFlag
  1207  066F                     l2337:	
  1208                           
  1209                           ;beacon_main.c: 86: }
  1210                           ;beacon_main.c: 89: if(transmitFlag)
  1211  066F  086D               	movf	_transmitFlag,w
  1212  0670  1903               	btfsc	3,2
  1213  0671  2E76               	goto	l2341
  1214                           
  1215                           ;beacon_main.c: 90: TransmitMode();
  1216  0672  3187  2743  3186   	fcall	_TransmitMode
  1217  0675  0020               	movlb	0	; select bank0
  1218  0676                     l2341:	
  1219                           
  1220                           ;beacon_main.c: 92: if(PORTAbits.RA4)
  1221  0676  0020               	movlb	0	; select bank0
  1222  0677  1E0C               	btfss	12,4	;volatile
  1223  0678  2E60               	goto	l2325
  1224                           
  1225                           ;beacon_main.c: 93: _delay((unsigned long)((1)*(16000000/4000000.0)));
  1226  0679  3200               	nop2	;2 cycle nop
  1227  067A  3200               	nop2	;2 cycle nop
  1228  067B  2E60               	goto	l2325
  1229  067C                     __end_of_main:	
  1230                           ;beacon_main.c: 96: }
  1231                           ;beacon_main.c: 98: return (0);
  1232                           ;	Return value of _main is never used
  1233                           
  1234                           
  1235                           	psect	text1
  1236  0743                     __ptext1:	
  1237 ;; *************** function _TransmitMode *****************
  1238 ;; Defined at:
  1239 ;;		line 129 in file "beacon_functions.c"
  1240 ;; Parameters:    Size  Location     Type
  1241 ;;		None
  1242 ;; Auto vars:     Size  Location     Type
  1243 ;;		None
  1244 ;; Return value:  Size  Location     Type
  1245 ;;		None               void
  1246 ;; Registers used:
  1247 ;;		wreg, fsr0l, fsr0h, fsr1l, fsr1h, status,2, status,0, pclath, cstack
  1248 ;; Tracked objects:
  1249 ;;		On entry : 0/0
  1250 ;;		On exit  : 0/0
  1251 ;;		Unchanged: 0/0
  1252 ;; Data sizes:     COMMON   BANK0   BANK1   BANK2   BANK3   BANK4   BANK5
  1253 ;;      Params:         0       0       0       0       0       0       0
  1254 ;;      Locals:         0       0       0       0       0       0       0
  1255 ;;      Temps:          0       0       0       0       0       0       0
  1256 ;;      Totals:         0       0       0       0       0       0       0
  1257 ;;Total ram usage:        0 bytes
  1258 ;; Hardware stack levels used:    1
  1259 ;; Hardware stack levels required when called:    8
  1260 ;; This function calls:
  1261 ;;		_PlaybackMode
  1262 ;; This function is called by:
  1263 ;;		_main
  1264 ;; This function uses a non-reentrant model
  1265 ;;
  1266                           
  1267                           
  1268                           ;psect for function _TransmitMode
  1269  0743                     _TransmitMode:	
  1270                           
  1271                           ;beacon_functions.c: 132: PORTBbits.RB5 = 1;
  1272                           
  1273                           ;incstack = 0
  1274                           ; Regs used in _TransmitMode: [wreg-fsr1h+status,2+status,0+pclath+cstack]
  1275  0743  0020               	movlb	0	; select bank0
  1276  0744  168D               	bsf	13,5	;volatile
  1277                           
  1278                           ;beacon_functions.c: 133: PlaybackMode();
  1279  0745  3183  2395         	fcall	_PlaybackMode
  1280                           
  1281                           ;beacon_functions.c: 134: PORTBbits.RB5 = 0;
  1282  0747  0020               	movlb	0	; select bank0
  1283  0748  128D               	bcf	13,5	;volatile
  1284  0749  0008               	return
  1285  074A                     __end_of_TransmitMode:	
  1286                           
  1287                           	psect	text2
  1288  0395                     __ptext2:	
  1289 ;; *************** function _PlaybackMode *****************
  1290 ;; Defined at:
  1291 ;;		line 158 in file "beacon_functions.c"
  1292 ;; Parameters:    Size  Location     Type
  1293 ;;		None
  1294 ;; Auto vars:     Size  Location     Type
  1295 ;;  end_address     4   71[BANK0 ] long 
  1296 ;;  curr_address    4   65[BANK0 ] long 
  1297 ;; Return value:  Size  Location     Type
  1298 ;;		None               void
  1299 ;; Registers used:
  1300 ;;		wreg, fsr0l, fsr0h, fsr1l, fsr1h, status,2, status,0, pclath, cstack
  1301 ;; Tracked objects:
  1302 ;;		On entry : 0/0
  1303 ;;		On exit  : 0/0
  1304 ;;		Unchanged: 0/0
  1305 ;; Data sizes:     COMMON   BANK0   BANK1   BANK2   BANK3   BANK4   BANK5
  1306 ;;      Params:         0       0       0       0       0       0       0
  1307 ;;      Locals:         0      10       0       0       0       0       0
  1308 ;;      Temps:          0       4       0       0       0       0       0
  1309 ;;      Totals:         0      14       0       0       0       0       0
  1310 ;;Total ram usage:       14 bytes
  1311 ;; Hardware stack levels used:    1
  1312 ;; Hardware stack levels required when called:    7
  1313 ;; This function calls:
  1314 ;;		_GPStoAudio
  1315 ;;		_InitSPI
  1316 ;;		_ReadOverheadSPI
  1317 ;;		_ReadSPI
  1318 ;;		_WriteBuffer
  1319 ;; This function is called by:
  1320 ;;		_TransmitMode
  1321 ;;		_main
  1322 ;; This function uses a non-reentrant model
  1323 ;;
  1324                           
  1325                           
  1326                           ;psect for function _PlaybackMode
  1327  0395                     _PlaybackMode:	
  1328                           
  1329                           ;beacon_functions.c: 160: long int curr_address = 0xBB68;
  1330                           
  1331                           ;incstack = 0
  1332                           ; Regs used in _PlaybackMode: [wreg-fsr1h+status,2+status,0+pclath+cstack]
  1333  0395  3000               	movlw	0
  1334  0396  0020               	movlb	0	; select bank0
  1335  0397  00E4               	movwf	PlaybackMode@curr_address+3
  1336  0398  3000               	movlw	0
  1337  0399  00E3               	movwf	PlaybackMode@curr_address+2
  1338  039A  30BB               	movlw	187
  1339  039B  00E2               	movwf	PlaybackMode@curr_address+1
  1340  039C  3068               	movlw	104
  1341  039D  00E1               	movwf	PlaybackMode@curr_address
  1342                           
  1343                           ;beacon_functions.c: 161: long int end_address = 0;
  1344  039E  3000               	movlw	0
  1345  039F  00EA               	movwf	PlaybackMode@end_address+3
  1346  03A0  3000               	movlw	0
  1347  03A1  00E9               	movwf	PlaybackMode@end_address+2
  1348  03A2  3000               	movlw	0
  1349  03A3  00E8               	movwf	PlaybackMode@end_address+1
  1350  03A4  3000               	movlw	0
  1351  03A5  00E7               	movwf	PlaybackMode@end_address
  1352                           
  1353                           ;beacon_functions.c: 163: InitSPI();
  1354  03A6  3186  26DE  3183   	fcall	_InitSPI
  1355                           
  1356                           ;beacon_functions.c: 165: ReadOverheadSPI(0xBB68);
  1357  03A9  3000               	movlw	0
  1358  03AA  0020               	movlb	0	; select bank0
  1359  03AB  00A5               	movwf	ReadOverheadSPI@address+3
  1360  03AC  3000               	movlw	0
  1361  03AD  00A4               	movwf	ReadOverheadSPI@address+2
  1362  03AE  30BB               	movlw	187
  1363  03AF  00A3               	movwf	ReadOverheadSPI@address+1
  1364  03B0  3068               	movlw	104
  1365  03B1  00A2               	movwf	ReadOverheadSPI@address
  1366  03B2  3185  2552  3183   	fcall	_ReadOverheadSPI
  1367                           
  1368                           ;beacon_functions.c: 166: if(PORTAbits.RA4)
  1369  03B5  0020               	movlb	0	; select bank0
  1370  03B6  1E0C               	btfss	12,4	;volatile
  1371  03B7  2BC0               	goto	l2203
  1372                           
  1373                           ;beacon_functions.c: 167: {
  1374                           ;beacon_functions.c: 168: SSPCON1bits.SSPEN=0;
  1375  03B8  0024               	movlb	4	; select bank4
  1376  03B9  1295               	bcf	21,5	;volatile
  1377                           
  1378                           ;beacon_functions.c: 169: PORTCbits.RC5 = 0;
  1379  03BA  0020               	movlb	0	; select bank0
  1380  03BB  128E               	bcf	14,5	;volatile
  1381                           
  1382                           ;beacon_functions.c: 170: LATC2 = (1);
  1383  03BC  0022               	movlb	2	; select bank2
  1384  03BD  150E               	bsf	14,2	;volatile
  1385                           
  1386                           ;beacon_functions.c: 171: dacOutputFlag = 0;
  1387  03BE  01FA               	clrf	_dacOutputFlag
  1388                           
  1389                           ;beacon_functions.c: 172: return;
  1390  03BF  0008               	return
  1391  03C0                     l2203:	
  1392                           
  1393                           ;beacon_functions.c: 173: }
  1394                           ;beacon_functions.c: 176: end_address = ReadSPI();
  1395  03C0  3187  272F  3183   	fcall	_ReadSPI
  1396  03C3  0020               	movlb	0	; select bank0
  1397  03C4  00DD               	movwf	??_PlaybackMode
  1398  03C5  01DE               	clrf	??_PlaybackMode+1
  1399  03C6  01DF               	clrf	??_PlaybackMode+2
  1400  03C7  01E0               	clrf	??_PlaybackMode+3
  1401  03C8  0860               	movf	??_PlaybackMode+3,w
  1402  03C9  00EA               	movwf	PlaybackMode@end_address+3
  1403  03CA  085F               	movf	??_PlaybackMode+2,w
  1404  03CB  00E9               	movwf	PlaybackMode@end_address+2
  1405  03CC  085E               	movf	??_PlaybackMode+1,w
  1406  03CD  00E8               	movwf	PlaybackMode@end_address+1
  1407  03CE  085D               	movf	??_PlaybackMode,w
  1408  03CF  00E7               	movwf	PlaybackMode@end_address
  1409                           
  1410                           ;beacon_functions.c: 177: end_address = end_address<<8;
  1411  03D0  0867               	movf	PlaybackMode@end_address,w
  1412  03D1  00DD               	movwf	??_PlaybackMode
  1413  03D2  0868               	movf	PlaybackMode@end_address+1,w
  1414  03D3  00DE               	movwf	??_PlaybackMode+1
  1415  03D4  0869               	movf	PlaybackMode@end_address+2,w
  1416  03D5  00DF               	movwf	??_PlaybackMode+2
  1417  03D6  086A               	movf	PlaybackMode@end_address+3,w
  1418  03D7  00E0               	movwf	??_PlaybackMode+3
  1419  03D8  3008               	movlw	8
  1420  03D9                     u2185:	
  1421  03D9  35DD               	lslf	??_PlaybackMode,f
  1422  03DA  0DDE               	rlf	??_PlaybackMode+1,f
  1423  03DB  0DDF               	rlf	??_PlaybackMode+2,f
  1424  03DC  0DE0               	rlf	??_PlaybackMode+3,f
  1425  03DD  0B89               	decfsz	9,f
  1426  03DE  2BD9               	goto	u2185
  1427  03DF  0860               	movf	??_PlaybackMode+3,w
  1428  03E0  00EA               	movwf	PlaybackMode@end_address+3
  1429  03E1  085F               	movf	??_PlaybackMode+2,w
  1430  03E2  00E9               	movwf	PlaybackMode@end_address+2
  1431  03E3  085E               	movf	??_PlaybackMode+1,w
  1432  03E4  00E8               	movwf	PlaybackMode@end_address+1
  1433  03E5  085D               	movf	??_PlaybackMode,w
  1434  03E6  00E7               	movwf	PlaybackMode@end_address
  1435                           
  1436                           ;beacon_functions.c: 178: end_address +=ReadSPI();
  1437  03E7  3187  272F  3183   	fcall	_ReadSPI
  1438  03EA  0020               	movlb	0	; select bank0
  1439  03EB  00DD               	movwf	??_PlaybackMode
  1440  03EC  01DE               	clrf	??_PlaybackMode+1
  1441  03ED  01DF               	clrf	??_PlaybackMode+2
  1442  03EE  01E0               	clrf	??_PlaybackMode+3
  1443  03EF  085D               	movf	??_PlaybackMode,w
  1444  03F0  07E7               	addwf	PlaybackMode@end_address,f
  1445  03F1  085E               	movf	??_PlaybackMode+1,w
  1446  03F2  3DE8               	addwfc	PlaybackMode@end_address+1,f
  1447  03F3  085F               	movf	??_PlaybackMode+2,w
  1448  03F4  3DE9               	addwfc	PlaybackMode@end_address+2,f
  1449  03F5  0860               	movf	??_PlaybackMode+3,w
  1450  03F6  3DEA               	addwfc	PlaybackMode@end_address+3,f
  1451                           
  1452                           ;beacon_functions.c: 179: end_address = end_address<<8;
  1453  03F7  0867               	movf	PlaybackMode@end_address,w
  1454  03F8  00DD               	movwf	??_PlaybackMode
  1455  03F9  0868               	movf	PlaybackMode@end_address+1,w
  1456  03FA  00DE               	movwf	??_PlaybackMode+1
  1457  03FB  0869               	movf	PlaybackMode@end_address+2,w
  1458  03FC  00DF               	movwf	??_PlaybackMode+2
  1459  03FD  086A               	movf	PlaybackMode@end_address+3,w
  1460  03FE  00E0               	movwf	??_PlaybackMode+3
  1461  03FF  3008               	movlw	8
  1462  0400                     u2195:	
  1463  0400  35DD               	lslf	??_PlaybackMode,f
  1464  0401  0DDE               	rlf	??_PlaybackMode+1,f
  1465  0402  0DDF               	rlf	??_PlaybackMode+2,f
  1466  0403  0DE0               	rlf	??_PlaybackMode+3,f
  1467  0404  0B89               	decfsz	9,f
  1468  0405  2C00               	goto	u2195
  1469  0406  0860               	movf	??_PlaybackMode+3,w
  1470  0407  00EA               	movwf	PlaybackMode@end_address+3
  1471  0408  085F               	movf	??_PlaybackMode+2,w
  1472  0409  00E9               	movwf	PlaybackMode@end_address+2
  1473  040A  085E               	movf	??_PlaybackMode+1,w
  1474  040B  00E8               	movwf	PlaybackMode@end_address+1
  1475  040C  085D               	movf	??_PlaybackMode,w
  1476  040D  00E7               	movwf	PlaybackMode@end_address
  1477                           
  1478                           ;beacon_functions.c: 180: end_address +=ReadSPI();
  1479  040E  3187  272F  3183   	fcall	_ReadSPI
  1480  0411  0020               	movlb	0	; select bank0
  1481  0412  00DD               	movwf	??_PlaybackMode
  1482  0413  01DE               	clrf	??_PlaybackMode+1
  1483  0414  01DF               	clrf	??_PlaybackMode+2
  1484  0415  01E0               	clrf	??_PlaybackMode+3
  1485  0416  085D               	movf	??_PlaybackMode,w
  1486  0417  07E7               	addwf	PlaybackMode@end_address,f
  1487  0418  085E               	movf	??_PlaybackMode+1,w
  1488  0419  3DE8               	addwfc	PlaybackMode@end_address+1,f
  1489  041A  085F               	movf	??_PlaybackMode+2,w
  1490  041B  3DE9               	addwfc	PlaybackMode@end_address+2,f
  1491  041C  0860               	movf	??_PlaybackMode+3,w
  1492  041D  3DEA               	addwfc	PlaybackMode@end_address+3,f
  1493                           
  1494                           ;beacon_functions.c: 182: Latitude[0] = ReadSPI();
  1495  041E  3187  272F  3183   	fcall	_ReadSPI
  1496  0421  0020               	movlb	0	; select bank0
  1497  0422  00DD               	movwf	??_PlaybackMode
  1498  0423  085D               	movf	??_PlaybackMode,w
  1499  0424  0021               	movlb	1	; select bank1
  1500  0425  00D4               	movwf	_Latitude^(0+128)
  1501                           
  1502                           ;beacon_functions.c: 183: Latitude[1] = ReadSPI();
  1503  0426  3187  272F  3183   	fcall	_ReadSPI
  1504  0429  0020               	movlb	0	; select bank0
  1505  042A  00DD               	movwf	??_PlaybackMode
  1506  042B  085D               	movf	??_PlaybackMode,w
  1507  042C  0021               	movlb	1	; select bank1
  1508  042D  00D5               	movwf	(_Latitude^(0+128)+1)
  1509                           
  1510                           ;beacon_functions.c: 184: Latitude[2] = ReadSPI();
  1511  042E  3187  272F  3183   	fcall	_ReadSPI
  1512  0431  0020               	movlb	0	; select bank0
  1513  0432  00DD               	movwf	??_PlaybackMode
  1514  0433  085D               	movf	??_PlaybackMode,w
  1515  0434  0021               	movlb	1	; select bank1
  1516  0435  00D6               	movwf	(_Latitude^(0+128)+2)
  1517                           
  1518                           ;beacon_functions.c: 186: NorthSouth = ReadSPI();
  1519  0436  3187  272F  3183   	fcall	_ReadSPI
  1520  0439  0020               	movlb	0	; select bank0
  1521  043A  00DD               	movwf	??_PlaybackMode
  1522  043B  085D               	movf	??_PlaybackMode,w
  1523  043C  00EB               	movwf	_NorthSouth
  1524                           
  1525                           ;beacon_functions.c: 188: Longitude[0] = ReadSPI();
  1526  043D  3187  272F  3183   	fcall	_ReadSPI
  1527  0440  0020               	movlb	0	; select bank0
  1528  0441  00DD               	movwf	??_PlaybackMode
  1529  0442  085D               	movf	??_PlaybackMode,w
  1530  0443  0021               	movlb	1	; select bank1
  1531  0444  00D7               	movwf	_Longitude^(0+128)
  1532                           
  1533                           ;beacon_functions.c: 189: Longitude[1] = ReadSPI();
  1534  0445  3187  272F  3183   	fcall	_ReadSPI
  1535  0448  0020               	movlb	0	; select bank0
  1536  0449  00DD               	movwf	??_PlaybackMode
  1537  044A  085D               	movf	??_PlaybackMode,w
  1538  044B  0021               	movlb	1	; select bank1
  1539  044C  00D8               	movwf	(_Longitude^(0+128)+1)
  1540                           
  1541                           ;beacon_functions.c: 190: Longitude[2] = ReadSPI();
  1542  044D  3187  272F  3183   	fcall	_ReadSPI
  1543  0450  0020               	movlb	0	; select bank0
  1544  0451  00DD               	movwf	??_PlaybackMode
  1545  0452  085D               	movf	??_PlaybackMode,w
  1546  0453  0021               	movlb	1	; select bank1
  1547  0454  00D9               	movwf	(_Longitude^(0+128)+2)
  1548                           
  1549                           ;beacon_functions.c: 192: EastWest = ReadSPI();
  1550  0455  3187  272F  3183   	fcall	_ReadSPI
  1551  0458  0020               	movlb	0	; select bank0
  1552  0459  00DD               	movwf	??_PlaybackMode
  1553  045A  085D               	movf	??_PlaybackMode,w
  1554  045B  0021               	movlb	1	; select bank1
  1555  045C  00DC               	movwf	_EastWest^(0+128)
  1556                           
  1557                           ;beacon_functions.c: 194: dacOutputFlag = 1;
  1558  045D  01FA               	clrf	_dacOutputFlag
  1559  045E  0AFA               	incf	_dacOutputFlag,f
  1560                           
  1561                           ;beacon_functions.c: 196: while((transmitFlag || (!transmitFlag && !PORTAbits.RA4 && pla
      +                          ybackFlag)) && (curr_address<=end_address))
  1562  045F  2C9C               	goto	l2241
  1563  0460                     l2229:	
  1564                           
  1565                           ;beacon_functions.c: 197: {
  1566                           ;beacon_functions.c: 198: if(!((((end))==(51))?((((start))==0)?(1):(0)):((((end)+1)==((s
      +                          tart)))?(1):(0))))
  1567  0460  3033               	movlw	51
  1568  0461  0021               	movlb	1	; select bank1
  1569  0462  065A               	xorwf	_end^(0+128),w
  1570  0463  045B               	iorwf	(_end+1)^(0+128),w
  1571  0464  1903               	skipnz
  1572  0465  2C7E               	goto	l2233
  1573  0466  085A               	movf	_end^(0+128),w
  1574  0467  3E01               	addlw	1
  1575  0468  0020               	movlb	0	; select bank0
  1576  0469  00DD               	movwf	??_PlaybackMode
  1577  046A  3000               	movlw	0
  1578  046B  0021               	movlb	1	; select bank1
  1579  046C  3D5B               	addwfc	(_end+1)^(0+128),w
  1580  046D  0020               	movlb	0	; select bank0
  1581  046E  00DE               	movwf	??_PlaybackMode+1
  1582  046F  0879               	movf	_start+1,w
  1583  0470  065E               	xorwf	??_PlaybackMode+1,w
  1584  0471  1D03               	skipz
  1585  0472  2C75               	goto	u2215
  1586  0473  0878               	movf	_start,w
  1587  0474  065D               	xorwf	??_PlaybackMode,w
  1588  0475                     u2215:	
  1589  0475  3000               	movlw	0
  1590  0476  1903               	skipnz
  1591  0477  3001               	movlw	1
  1592  0478  00DF               	movwf	??_PlaybackMode+2
  1593  0479  01E0               	clrf	??_PlaybackMode+3
  1594  047A  085F               	movf	??_PlaybackMode+2,w
  1595  047B  00E5               	movwf	_PlaybackMode$646
  1596  047C  0860               	movf	??_PlaybackMode+3,w
  1597  047D  2C89               	goto	L1
  1598  047E                     l2233:	
  1599  047E  0879               	movf	_start+1,w
  1600  047F  0478               	iorwf	_start,w
  1601  0480  3000               	movlw	0
  1602  0481  1903               	skipnz
  1603  0482  3001               	movlw	1
  1604  0483  0020               	movlb	0	; select bank0
  1605  0484  00DD               	movwf	??_PlaybackMode
  1606  0485  01DE               	clrf	??_PlaybackMode+1
  1607  0486  085D               	movf	??_PlaybackMode,w
  1608  0487  00E5               	movwf	_PlaybackMode$646
  1609  0488  085E               	movf	??_PlaybackMode+1,w
  1610  0489                     L1:	
  1611  0489  00E6               	movwf	_PlaybackMode$646+1
  1612  048A  0866               	movf	_PlaybackMode$646+1,w
  1613  048B  0465               	iorwf	_PlaybackMode$646,w
  1614  048C  1D03               	skipz
  1615  048D  2C9C               	goto	l2241
  1616                           
  1617                           ;beacon_functions.c: 199: {
  1618                           ;beacon_functions.c: 200: curr_address++;
  1619  048E  3001               	movlw	1
  1620  048F  07E1               	addwf	PlaybackMode@curr_address,f
  1621  0490  3000               	movlw	0
  1622  0491  3DE2               	addwfc	PlaybackMode@curr_address+1,f
  1623  0492  3000               	movlw	0
  1624  0493  3DE3               	addwfc	PlaybackMode@curr_address+2,f
  1625  0494  3000               	movlw	0
  1626  0495  3DE4               	addwfc	PlaybackMode@curr_address+3,f
  1627                           
  1628                           ;beacon_functions.c: 201: WriteBuffer(ReadSPI());
  1629  0496  3187  272F  3183   	fcall	_ReadSPI
  1630  0499  3186  269E  3183   	fcall	_WriteBuffer
  1631  049C                     l2241:	
  1632  049C  0020               	movlb	0	; select bank0
  1633  049D  08ED               	movf	_transmitFlag,f
  1634  049E  1D03               	skipz
  1635  049F  2CA7               	goto	l2249
  1636  04A0  08ED               	movf	_transmitFlag,f
  1637  04A1  1903               	btfsc	3,2
  1638  04A2  1A0C               	btfsc	12,4	;volatile
  1639  04A3  2CBB               	goto	l147
  1640  04A4  086C               	movf	_playbackFlag,w
  1641  04A5  1903               	btfsc	3,2
  1642  04A6  2CBB               	goto	l147
  1643  04A7                     l2249:	
  1644  04A7  086A               	movf	PlaybackMode@end_address+3,w
  1645  04A8  3A80               	xorlw	128
  1646  04A9  00DD               	movwf	??_PlaybackMode
  1647  04AA  0864               	movf	PlaybackMode@curr_address+3,w
  1648  04AB  3A80               	xorlw	128
  1649  04AC  025D               	subwf	??_PlaybackMode,w
  1650  04AD  1D03               	skipz
  1651  04AE  2CB9               	goto	u2273
  1652  04AF  0863               	movf	PlaybackMode@curr_address+2,w
  1653  04B0  0269               	subwf	PlaybackMode@end_address+2,w
  1654  04B1  1D03               	skipz
  1655  04B2  2CB9               	goto	u2273
  1656  04B3  0862               	movf	PlaybackMode@curr_address+1,w
  1657  04B4  0268               	subwf	PlaybackMode@end_address+1,w
  1658  04B5  1D03               	skipz
  1659  04B6  2CB9               	goto	u2273
  1660  04B7  0861               	movf	PlaybackMode@curr_address,w
  1661  04B8  0267               	subwf	PlaybackMode@end_address,w
  1662  04B9                     u2273:	
  1663  04B9  1803               	skipnc
  1664  04BA  2C60               	goto	l2229
  1665  04BB                     l147:	
  1666                           
  1667                           ;beacon_functions.c: 202: }
  1668                           ;beacon_functions.c: 203: }
  1669                           ;beacon_functions.c: 204: LATC2 = (1);
  1670  04BB  0022               	movlb	2	; select bank2
  1671  04BC  150E               	bsf	14,2	;volatile
  1672  04BD                     l2251:	
  1673                           ;beacon_functions.c: 205: while((transmitFlag || (!transmitFlag && !PORTAbits.RA4 && pla
      +                          ybackFlag)) && !((((start))==((end)))?(1):(0)));
  1674                           
  1675  04BD  0020               	movlb	0	; select bank0
  1676  04BE  08ED               	movf	_transmitFlag,f
  1677  04BF  1D03               	skipz
  1678  04C0  2CC8               	goto	l2259
  1679  04C1  08ED               	movf	_transmitFlag,f
  1680  04C2  1903               	btfsc	3,2
  1681  04C3  1A0C               	btfsc	12,4	;volatile
  1682  04C4  2CD2               	goto	l2261
  1683  04C5  086C               	movf	_playbackFlag,w
  1684  04C6  1903               	btfsc	3,2
  1685  04C7  2CD2               	goto	l2261
  1686  04C8                     l2259:	
  1687  04C8  0021               	movlb	1	; select bank1
  1688  04C9  085B               	movf	(_end+1)^(0+128),w
  1689  04CA  0679               	xorwf	_start+1,w
  1690  04CB  1D03               	skipz
  1691  04CC  2CCF               	goto	u2325
  1692  04CD  085A               	movf	_end^(0+128),w
  1693  04CE  0678               	xorwf	_start,w
  1694  04CF                     u2325:	
  1695  04CF  1D03               	skipz
  1696  04D0  2CBD               	goto	l2251
  1697  04D1  0020               	movlb	0	; select bank0
  1698  04D2                     l2261:	
  1699                           
  1700                           ;beacon_functions.c: 208: GPStoAudio();
  1701  04D2  3180  204D         	fcall	_GPStoAudio
  1702                           
  1703                           ;beacon_functions.c: 210: SSPCON1bits.SSPEN=0;
  1704  04D4  0024               	movlb	4	; select bank4
  1705  04D5  1295               	bcf	21,5	;volatile
  1706                           
  1707                           ;beacon_functions.c: 211: PORTCbits.RC5 = 0;
  1708  04D6  0020               	movlb	0	; select bank0
  1709  04D7  128E               	bcf	14,5	;volatile
  1710                           
  1711                           ;beacon_functions.c: 212: LATC2 = (1);
  1712  04D8  0022               	movlb	2	; select bank2
  1713  04D9  150E               	bsf	14,2	;volatile
  1714                           
  1715                           ;beacon_functions.c: 213: dacOutputFlag = 0;
  1716  04DA  01FA               	clrf	_dacOutputFlag
  1717  04DB  0008               	return
  1718  04DC                     __end_of_PlaybackMode:	
  1719                           
  1720                           	psect	text3
  1721  06DE                     __ptext3:	
  1722 ;; *************** function _InitSPI *****************
  1723 ;; Defined at:
  1724 ;;		line 70 in file "beacon_functions.c"
  1725 ;; Parameters:    Size  Location     Type
  1726 ;;		None
  1727 ;; Auto vars:     Size  Location     Type
  1728 ;;		None
  1729 ;; Return value:  Size  Location     Type
  1730 ;;		None               void
  1731 ;; Registers used:
  1732 ;;		wreg, status,2, status,0
  1733 ;; Tracked objects:
  1734 ;;		On entry : 0/0
  1735 ;;		On exit  : 0/0
  1736 ;;		Unchanged: 0/0
  1737 ;; Data sizes:     COMMON   BANK0   BANK1   BANK2   BANK3   BANK4   BANK5
  1738 ;;      Params:         0       0       0       0       0       0       0
  1739 ;;      Locals:         0       0       0       0       0       0       0
  1740 ;;      Temps:          0       0       0       0       0       0       0
  1741 ;;      Totals:         0       0       0       0       0       0       0
  1742 ;;Total ram usage:        0 bytes
  1743 ;; Hardware stack levels used:    1
  1744 ;; Hardware stack levels required when called:    2
  1745 ;; This function calls:
  1746 ;;		Nothing
  1747 ;; This function is called by:
  1748 ;;		_PlaybackMode
  1749 ;;		_main
  1750 ;; This function uses a non-reentrant model
  1751 ;;
  1752                           
  1753                           
  1754                           ;psect for function _InitSPI
  1755  06DE                     _InitSPI:	
  1756                           
  1757                           ;beacon_functions.c: 77: TRISCbits.TRISC2 = 0;
  1758                           
  1759                           ;incstack = 0
  1760                           ; Regs used in _InitSPI: [wreg+status,2+status,0]
  1761  06DE  0021               	movlb	1	; select bank1
  1762  06DF  110E               	bcf	14,2	;volatile
  1763                           
  1764                           ;beacon_functions.c: 78: TRISCbits.TRISC3 = 0;
  1765  06E0  118E               	bcf	14,3	;volatile
  1766                           
  1767                           ;beacon_functions.c: 79: TRISCbits.TRISC4 = 1;
  1768  06E1  160E               	bsf	14,4	;volatile
  1769                           
  1770                           ;beacon_functions.c: 80: TRISCbits.TRISC5 = 0;
  1771  06E2  128E               	bcf	14,5	;volatile
  1772                           
  1773                           ;beacon_functions.c: 82: LATC2 = (1);
  1774  06E3  0022               	movlb	2	; select bank2
  1775  06E4  150E               	bsf	14,2	;volatile
  1776                           
  1777                           ;beacon_functions.c: 85: SSPCON1bits.SSPEN=0x00;
  1778  06E5  0024               	movlb	4	; select bank4
  1779  06E6  1295               	bcf	21,5	;volatile
  1780                           
  1781                           ;beacon_functions.c: 86: SSPCON1bits.SSPM=0x01;
  1782  06E7  0815               	movf	21,w	;volatile
  1783  06E8  39F0               	andlw	-16
  1784  06E9  3801               	iorlw	1
  1785  06EA  0095               	movwf	21	;volatile
  1786                           
  1787                           ;beacon_functions.c: 87: SSPCON1bits.CKP=0;
  1788  06EB  1215               	bcf	21,4	;volatile
  1789                           
  1790                           ;beacon_functions.c: 88: SSPSTATbits.CKE=1;
  1791  06EC  1714               	bsf	20,6	;volatile
  1792                           
  1793                           ;beacon_functions.c: 89: SSPSTATbits.SMP=0;
  1794  06ED  1394               	bcf	20,7	;volatile
  1795                           
  1796                           ;beacon_functions.c: 90: SSPCON1bits.SSPEN=0x01;
  1797  06EE  1695               	bsf	21,5	;volatile
  1798  06EF  0008               	return
  1799  06F0                     __end_of_InitSPI:	
  1800                           
  1801                           	psect	text4
  1802  004D                     __ptext4:	
  1803 ;; *************** function _GPStoAudio *****************
  1804 ;; Defined at:
  1805 ;;		line 438 in file "beacon_functions.c"
  1806 ;; Parameters:    Size  Location     Type
  1807 ;;		None
  1808 ;; Auto vars:     Size  Location     Type
  1809 ;;  datas          21   38[BANK0 ] unsigned char [21]
  1810 ;;  x               2   59[BANK0 ] int 
  1811 ;; Return value:  Size  Location     Type
  1812 ;;		None               void
  1813 ;; Registers used:
  1814 ;;		wreg, fsr0l, fsr0h, fsr1l, fsr1h, status,2, status,0, pclath, cstack
  1815 ;; Tracked objects:
  1816 ;;		On entry : 0/0
  1817 ;;		On exit  : 0/0
  1818 ;;		Unchanged: 0/0
  1819 ;; Data sizes:     COMMON   BANK0   BANK1   BANK2   BANK3   BANK4   BANK5
  1820 ;;      Params:         0       0       0       0       0       0       0
  1821 ;;      Locals:         0      23       0       0       0       0       0
  1822 ;;      Temps:          0       3       0       0       0       0       0
  1823 ;;      Totals:         0      26       0       0       0       0       0
  1824 ;;Total ram usage:       26 bytes
  1825 ;; Hardware stack levels used:    1
  1826 ;; Hardware stack levels required when called:    6
  1827 ;; This function calls:
  1828 ;;		_PlayAddress
  1829 ;;		___awdiv
  1830 ;;		___awmod
  1831 ;; This function is called by:
  1832 ;;		_PlaybackMode
  1833 ;; This function uses a non-reentrant model
  1834 ;;
  1835                           
  1836                           
  1837                           ;psect for function _GPStoAudio
  1838  004D                     _GPStoAudio:	
  1839                           
  1840                           ;beacon_functions.c: 440: int x = 0;
  1841                           
  1842                           ;incstack = 0
  1843                           ; Regs used in _GPStoAudio: [wreg-fsr1h+status,2+status,0+pclath+cstack]
  1844  004D  0020               	movlb	0	; select bank0
  1845  004E  01DB               	clrf	GPStoAudio@x
  1846  004F  01DC               	clrf	GPStoAudio@x+1
  1847                           
  1848                           ;beacon_functions.c: 441: unsigned char datas[21];
  1849                           ;beacon_functions.c: 443: datas[0] = Latitude[0]/10+48;
  1850  0050  300A               	movlw	10
  1851  0051  00A2               	movwf	___awdiv@divisor
  1852  0052  3000               	movlw	0
  1853  0053  00A3               	movwf	___awdiv@divisor+1
  1854  0054  0021               	movlb	1	; select bank1
  1855  0055  0854               	movf	_Latitude^(0+128),w
  1856  0056  0020               	movlb	0	; select bank0
  1857  0057  00C3               	movwf	??_GPStoAudio
  1858  0058  01C4               	clrf	??_GPStoAudio+1
  1859  0059  0843               	movf	??_GPStoAudio,w
  1860  005A  00A4               	movwf	___awdiv@dividend
  1861  005B  0844               	movf	??_GPStoAudio+1,w
  1862  005C  00A5               	movwf	___awdiv@dividend+1
  1863  005D  3185  25AA  3180   	fcall	___awdiv
  1864  0060  0020               	movlb	0	; select bank0
  1865  0061  0822               	movf	?___awdiv,w
  1866  0062  3E30               	addlw	48
  1867  0063  00C5               	movwf	??_GPStoAudio+2
  1868  0064  0845               	movf	??_GPStoAudio+2,w
  1869  0065  00C6               	movwf	GPStoAudio@datas
  1870                           
  1871                           ;beacon_functions.c: 444: datas[1] = (Latitude[0]%10)+48;
  1872  0066  300A               	movlw	10
  1873  0067  00F3               	movwf	___awmod@divisor
  1874  0068  3000               	movlw	0
  1875  0069  00F4               	movwf	___awmod@divisor+1
  1876  006A  0021               	movlb	1	; select bank1
  1877  006B  0854               	movf	_Latitude^(0+128),w
  1878  006C  0020               	movlb	0	; select bank0
  1879  006D  00C3               	movwf	??_GPStoAudio
  1880  006E  01C4               	clrf	??_GPStoAudio+1
  1881  006F  0843               	movf	??_GPStoAudio,w
  1882  0070  00F5               	movwf	___awmod@dividend
  1883  0071  0844               	movf	??_GPStoAudio+1,w
  1884  0072  00F6               	movwf	___awmod@dividend+1
  1885  0073  3185  25FE  3180   	fcall	___awmod
  1886  0076  0873               	movf	?___awmod,w
  1887  0077  3E30               	addlw	48
  1888  0078  0020               	movlb	0	; select bank0
  1889  0079  00C5               	movwf	??_GPStoAudio+2
  1890  007A  0845               	movf	??_GPStoAudio+2,w
  1891  007B  00C7               	movwf	GPStoAudio@datas+1
  1892                           
  1893                           ;beacon_functions.c: 445: datas[2] = 'D';
  1894  007C  3044               	movlw	68
  1895  007D  00C3               	movwf	??_GPStoAudio
  1896  007E  0843               	movf	??_GPStoAudio,w
  1897  007F  00C8               	movwf	GPStoAudio@datas+2
  1898                           
  1899                           ;beacon_functions.c: 447: datas[3] = Latitude[1]/10+48;
  1900  0080  300A               	movlw	10
  1901  0081  00A2               	movwf	___awdiv@divisor
  1902  0082  3000               	movlw	0
  1903  0083  00A3               	movwf	___awdiv@divisor+1
  1904  0084  0021               	movlb	1	; select bank1
  1905  0085  0855               	movf	(_Latitude^(0+128)+1),w
  1906  0086  0020               	movlb	0	; select bank0
  1907  0087  00C3               	movwf	??_GPStoAudio
  1908  0088  01C4               	clrf	??_GPStoAudio+1
  1909  0089  0843               	movf	??_GPStoAudio,w
  1910  008A  00A4               	movwf	___awdiv@dividend
  1911  008B  0844               	movf	??_GPStoAudio+1,w
  1912  008C  00A5               	movwf	___awdiv@dividend+1
  1913  008D  3185  25AA  3180   	fcall	___awdiv
  1914  0090  0020               	movlb	0	; select bank0
  1915  0091  0822               	movf	?___awdiv,w
  1916  0092  3E30               	addlw	48
  1917  0093  00C5               	movwf	??_GPStoAudio+2
  1918  0094  0845               	movf	??_GPStoAudio+2,w
  1919  0095  00C9               	movwf	GPStoAudio@datas+3
  1920                           
  1921                           ;beacon_functions.c: 448: datas[4] = (Latitude[1]%10)+48;
  1922  0096  300A               	movlw	10
  1923  0097  00F3               	movwf	___awmod@divisor
  1924  0098  3000               	movlw	0
  1925  0099  00F4               	movwf	___awmod@divisor+1
  1926  009A  0021               	movlb	1	; select bank1
  1927  009B  0855               	movf	(_Latitude^(0+128)+1),w
  1928  009C  0020               	movlb	0	; select bank0
  1929  009D  00C3               	movwf	??_GPStoAudio
  1930  009E  01C4               	clrf	??_GPStoAudio+1
  1931  009F  0843               	movf	??_GPStoAudio,w
  1932  00A0  00F5               	movwf	___awmod@dividend
  1933  00A1  0844               	movf	??_GPStoAudio+1,w
  1934  00A2  00F6               	movwf	___awmod@dividend+1
  1935  00A3  3185  25FE  3180   	fcall	___awmod
  1936  00A6  0873               	movf	?___awmod,w
  1937  00A7  3E30               	addlw	48
  1938  00A8  0020               	movlb	0	; select bank0
  1939  00A9  00C5               	movwf	??_GPStoAudio+2
  1940  00AA  0845               	movf	??_GPStoAudio+2,w
  1941  00AB  00CA               	movwf	GPStoAudio@datas+4
  1942                           
  1943                           ;beacon_functions.c: 449: datas[5] = 'M';
  1944  00AC  304D               	movlw	77
  1945  00AD  00C3               	movwf	??_GPStoAudio
  1946  00AE  0843               	movf	??_GPStoAudio,w
  1947  00AF  00CB               	movwf	GPStoAudio@datas+5
  1948                           
  1949                           ;beacon_functions.c: 451: datas[6] = Latitude[2]/10+48;
  1950  00B0  300A               	movlw	10
  1951  00B1  00A2               	movwf	___awdiv@divisor
  1952  00B2  3000               	movlw	0
  1953  00B3  00A3               	movwf	___awdiv@divisor+1
  1954  00B4  0021               	movlb	1	; select bank1
  1955  00B5  0856               	movf	(_Latitude^(0+128)+2),w
  1956  00B6  0020               	movlb	0	; select bank0
  1957  00B7  00C3               	movwf	??_GPStoAudio
  1958  00B8  01C4               	clrf	??_GPStoAudio+1
  1959  00B9  0843               	movf	??_GPStoAudio,w
  1960  00BA  00A4               	movwf	___awdiv@dividend
  1961  00BB  0844               	movf	??_GPStoAudio+1,w
  1962  00BC  00A5               	movwf	___awdiv@dividend+1
  1963  00BD  3185  25AA  3180   	fcall	___awdiv
  1964  00C0  0020               	movlb	0	; select bank0
  1965  00C1  0822               	movf	?___awdiv,w
  1966  00C2  3E30               	addlw	48
  1967  00C3  00C5               	movwf	??_GPStoAudio+2
  1968  00C4  0845               	movf	??_GPStoAudio+2,w
  1969  00C5  00CC               	movwf	GPStoAudio@datas+6
  1970                           
  1971                           ;beacon_functions.c: 452: datas[7] = (Latitude[2]%10)+48;
  1972  00C6  300A               	movlw	10
  1973  00C7  00F3               	movwf	___awmod@divisor
  1974  00C8  3000               	movlw	0
  1975  00C9  00F4               	movwf	___awmod@divisor+1
  1976  00CA  0021               	movlb	1	; select bank1
  1977  00CB  0856               	movf	(_Latitude^(0+128)+2),w
  1978  00CC  0020               	movlb	0	; select bank0
  1979  00CD  00C3               	movwf	??_GPStoAudio
  1980  00CE  01C4               	clrf	??_GPStoAudio+1
  1981  00CF  0843               	movf	??_GPStoAudio,w
  1982  00D0  00F5               	movwf	___awmod@dividend
  1983  00D1  0844               	movf	??_GPStoAudio+1,w
  1984  00D2  00F6               	movwf	___awmod@dividend+1
  1985  00D3  3185  25FE  3180   	fcall	___awmod
  1986  00D6  0873               	movf	?___awmod,w
  1987  00D7  3E30               	addlw	48
  1988  00D8  0020               	movlb	0	; select bank0
  1989  00D9  00C5               	movwf	??_GPStoAudio+2
  1990  00DA  0845               	movf	??_GPStoAudio+2,w
  1991  00DB  00CD               	movwf	GPStoAudio@datas+7
  1992                           
  1993                           ;beacon_functions.c: 453: datas[8] = 'X';
  1994  00DC  3058               	movlw	88
  1995  00DD  00C3               	movwf	??_GPStoAudio
  1996  00DE  0843               	movf	??_GPStoAudio,w
  1997  00DF  00CE               	movwf	GPStoAudio@datas+8
  1998                           
  1999                           ;beacon_functions.c: 455: datas[9] = NorthSouth;
  2000  00E0  086B               	movf	_NorthSouth,w
  2001  00E1  00C3               	movwf	??_GPStoAudio
  2002  00E2  0843               	movf	??_GPStoAudio,w
  2003  00E3  00CF               	movwf	GPStoAudio@datas+9
  2004                           
  2005                           ;beacon_functions.c: 457: datas[10] = Longitude[0]/100+48;
  2006  00E4  3064               	movlw	100
  2007  00E5  00A2               	movwf	___awdiv@divisor
  2008  00E6  3000               	movlw	0
  2009  00E7  00A3               	movwf	___awdiv@divisor+1
  2010  00E8  0021               	movlb	1	; select bank1
  2011  00E9  0857               	movf	_Longitude^(0+128),w
  2012  00EA  0020               	movlb	0	; select bank0
  2013  00EB  00C3               	movwf	??_GPStoAudio
  2014  00EC  01C4               	clrf	??_GPStoAudio+1
  2015  00ED  0843               	movf	??_GPStoAudio,w
  2016  00EE  00A4               	movwf	___awdiv@dividend
  2017  00EF  0844               	movf	??_GPStoAudio+1,w
  2018  00F0  00A5               	movwf	___awdiv@dividend+1
  2019  00F1  3185  25AA  3180   	fcall	___awdiv
  2020  00F4  0020               	movlb	0	; select bank0
  2021  00F5  0822               	movf	?___awdiv,w
  2022  00F6  3E30               	addlw	48
  2023  00F7  00C5               	movwf	??_GPStoAudio+2
  2024  00F8  0845               	movf	??_GPStoAudio+2,w
  2025  00F9  00D0               	movwf	GPStoAudio@datas+10
  2026                           
  2027                           ;beacon_functions.c: 458: datas[11] = ((Longitude[0]%100)/10)+48;
  2028  00FA  300A               	movlw	10
  2029  00FB  00A2               	movwf	___awdiv@divisor
  2030  00FC  3000               	movlw	0
  2031  00FD  00A3               	movwf	___awdiv@divisor+1
  2032  00FE  0021               	movlb	1	; select bank1
  2033  00FF  0857               	movf	_Longitude^(0+128),w
  2034  0100  0020               	movlb	0	; select bank0
  2035  0101  00C3               	movwf	??_GPStoAudio
  2036  0102  01C4               	clrf	??_GPStoAudio+1
  2037  0103  0843               	movf	??_GPStoAudio,w
  2038  0104  00F5               	movwf	___awmod@dividend
  2039  0105  0844               	movf	??_GPStoAudio+1,w
  2040  0106  00F6               	movwf	___awmod@dividend+1
  2041  0107  3064               	movlw	100
  2042  0108  00F3               	movwf	___awmod@divisor
  2043  0109  3000               	movlw	0
  2044  010A  00F4               	movwf	___awmod@divisor+1
  2045  010B  3185  25FE  3180   	fcall	___awmod
  2046  010E  0874               	movf	?___awmod+1,w
  2047  010F  0020               	movlb	0	; select bank0
  2048  0110  01A5               	clrf	___awdiv@dividend+1
  2049  0111  07A5               	addwf	___awdiv@dividend+1,f
  2050  0112  0873               	movf	?___awmod,w
  2051  0113  01A4               	clrf	___awdiv@dividend
  2052  0114  07A4               	addwf	___awdiv@dividend,f
  2053  0115  3185  25AA  3180   	fcall	___awdiv
  2054  0118  0020               	movlb	0	; select bank0
  2055  0119  0822               	movf	?___awdiv,w
  2056  011A  3E30               	addlw	48
  2057  011B  00C5               	movwf	??_GPStoAudio+2
  2058  011C  0845               	movf	??_GPStoAudio+2,w
  2059  011D  00D1               	movwf	GPStoAudio@datas+11
  2060                           
  2061                           ;beacon_functions.c: 459: datas[12] = Longitude[0]%10+48;
  2062  011E  300A               	movlw	10
  2063  011F  00F3               	movwf	___awmod@divisor
  2064  0120  3000               	movlw	0
  2065  0121  00F4               	movwf	___awmod@divisor+1
  2066  0122  0021               	movlb	1	; select bank1
  2067  0123  0857               	movf	_Longitude^(0+128),w
  2068  0124  0020               	movlb	0	; select bank0
  2069  0125  00C3               	movwf	??_GPStoAudio
  2070  0126  01C4               	clrf	??_GPStoAudio+1
  2071  0127  0843               	movf	??_GPStoAudio,w
  2072  0128  00F5               	movwf	___awmod@dividend
  2073  0129  0844               	movf	??_GPStoAudio+1,w
  2074  012A  00F6               	movwf	___awmod@dividend+1
  2075  012B  3185  25FE  3180   	fcall	___awmod
  2076  012E  0873               	movf	?___awmod,w
  2077  012F  3E30               	addlw	48
  2078  0130  0020               	movlb	0	; select bank0
  2079  0131  00C5               	movwf	??_GPStoAudio+2
  2080  0132  0845               	movf	??_GPStoAudio+2,w
  2081  0133  00D2               	movwf	GPStoAudio@datas+12
  2082                           
  2083                           ;beacon_functions.c: 460: datas[13] = 'D';
  2084  0134  3044               	movlw	68
  2085  0135  00C3               	movwf	??_GPStoAudio
  2086  0136  0843               	movf	??_GPStoAudio,w
  2087  0137  00D3               	movwf	GPStoAudio@datas+13
  2088                           
  2089                           ;beacon_functions.c: 462: datas[14] = Longitude[1]/10+48;
  2090  0138  300A               	movlw	10
  2091  0139  00A2               	movwf	___awdiv@divisor
  2092  013A  3000               	movlw	0
  2093  013B  00A3               	movwf	___awdiv@divisor+1
  2094  013C  0021               	movlb	1	; select bank1
  2095  013D  0858               	movf	(_Longitude^(0+128)+1),w
  2096  013E  0020               	movlb	0	; select bank0
  2097  013F  00C3               	movwf	??_GPStoAudio
  2098  0140  01C4               	clrf	??_GPStoAudio+1
  2099  0141  0843               	movf	??_GPStoAudio,w
  2100  0142  00A4               	movwf	___awdiv@dividend
  2101  0143  0844               	movf	??_GPStoAudio+1,w
  2102  0144  00A5               	movwf	___awdiv@dividend+1
  2103  0145  3185  25AA  3180   	fcall	___awdiv
  2104  0148  0020               	movlb	0	; select bank0
  2105  0149  0822               	movf	?___awdiv,w
  2106  014A  3E30               	addlw	48
  2107  014B  00C5               	movwf	??_GPStoAudio+2
  2108  014C  0845               	movf	??_GPStoAudio+2,w
  2109  014D  00D4               	movwf	GPStoAudio@datas+14
  2110                           
  2111                           ;beacon_functions.c: 463: datas[15] = (Longitude[1]%10)+48;
  2112  014E  300A               	movlw	10
  2113  014F  00F3               	movwf	___awmod@divisor
  2114  0150  3000               	movlw	0
  2115  0151  00F4               	movwf	___awmod@divisor+1
  2116  0152  0021               	movlb	1	; select bank1
  2117  0153  0858               	movf	(_Longitude^(0+128)+1),w
  2118  0154  0020               	movlb	0	; select bank0
  2119  0155  00C3               	movwf	??_GPStoAudio
  2120  0156  01C4               	clrf	??_GPStoAudio+1
  2121  0157  0843               	movf	??_GPStoAudio,w
  2122  0158  00F5               	movwf	___awmod@dividend
  2123  0159  0844               	movf	??_GPStoAudio+1,w
  2124  015A  00F6               	movwf	___awmod@dividend+1
  2125  015B  3185  25FE  3180   	fcall	___awmod
  2126  015E  0873               	movf	?___awmod,w
  2127  015F  3E30               	addlw	48
  2128  0160  0020               	movlb	0	; select bank0
  2129  0161  00C5               	movwf	??_GPStoAudio+2
  2130  0162  0845               	movf	??_GPStoAudio+2,w
  2131  0163  00D5               	movwf	GPStoAudio@datas+15
  2132                           
  2133                           ;beacon_functions.c: 464: datas[16] = 'M';
  2134  0164  304D               	movlw	77
  2135  0165  00C3               	movwf	??_GPStoAudio
  2136  0166  0843               	movf	??_GPStoAudio,w
  2137  0167  00D6               	movwf	GPStoAudio@datas+16
  2138                           
  2139                           ;beacon_functions.c: 466: datas[17] = Longitude[2]/10+48;
  2140  0168  300A               	movlw	10
  2141  0169  00A2               	movwf	___awdiv@divisor
  2142  016A  3000               	movlw	0
  2143  016B  00A3               	movwf	___awdiv@divisor+1
  2144  016C  0021               	movlb	1	; select bank1
  2145  016D  0859               	movf	(_Longitude^(0+128)+2),w
  2146  016E  0020               	movlb	0	; select bank0
  2147  016F  00C3               	movwf	??_GPStoAudio
  2148  0170  01C4               	clrf	??_GPStoAudio+1
  2149  0171  0843               	movf	??_GPStoAudio,w
  2150  0172  00A4               	movwf	___awdiv@dividend
  2151  0173  0844               	movf	??_GPStoAudio+1,w
  2152  0174  00A5               	movwf	___awdiv@dividend+1
  2153  0175  3185  25AA  3180   	fcall	___awdiv
  2154  0178  0020               	movlb	0	; select bank0
  2155  0179  0822               	movf	?___awdiv,w
  2156  017A  3E30               	addlw	48
  2157  017B  00C5               	movwf	??_GPStoAudio+2
  2158  017C  0845               	movf	??_GPStoAudio+2,w
  2159  017D  00D7               	movwf	GPStoAudio@datas+17
  2160                           
  2161                           ;beacon_functions.c: 467: datas[18] = (Longitude[2]%10)+48;
  2162  017E  300A               	movlw	10
  2163  017F  00F3               	movwf	___awmod@divisor
  2164  0180  3000               	movlw	0
  2165  0181  00F4               	movwf	___awmod@divisor+1
  2166  0182  0021               	movlb	1	; select bank1
  2167  0183  0859               	movf	(_Longitude^(0+128)+2),w
  2168  0184  0020               	movlb	0	; select bank0
  2169  0185  00C3               	movwf	??_GPStoAudio
  2170  0186  01C4               	clrf	??_GPStoAudio+1
  2171  0187  0843               	movf	??_GPStoAudio,w
  2172  0188  00F5               	movwf	___awmod@dividend
  2173  0189  0844               	movf	??_GPStoAudio+1,w
  2174  018A  00F6               	movwf	___awmod@dividend+1
  2175  018B  3185  25FE  3180   	fcall	___awmod
  2176  018E  0873               	movf	?___awmod,w
  2177  018F  3E30               	addlw	48
  2178  0190  0020               	movlb	0	; select bank0
  2179  0191  00C5               	movwf	??_GPStoAudio+2
  2180  0192  0845               	movf	??_GPStoAudio+2,w
  2181  0193  00D8               	movwf	GPStoAudio@datas+18
  2182                           
  2183                           ;beacon_functions.c: 468: datas[19] = 'X';
  2184  0194  3058               	movlw	88
  2185  0195  00C3               	movwf	??_GPStoAudio
  2186  0196  0843               	movf	??_GPStoAudio,w
  2187  0197  00D9               	movwf	GPStoAudio@datas+19
  2188                           
  2189                           ;beacon_functions.c: 470: datas[20] = EastWest;
  2190  0198  0021               	movlb	1	; select bank1
  2191  0199  085C               	movf	_EastWest^(0+128),w
  2192  019A  0020               	movlb	0	; select bank0
  2193  019B  00C3               	movwf	??_GPStoAudio
  2194  019C  0843               	movf	??_GPStoAudio,w
  2195  019D  00DA               	movwf	GPStoAudio@datas+20
  2196                           
  2197                           ;beacon_functions.c: 472: if(transmitFlag || (!transmitFlag && !PORTAbits.RA4 && playbac
      +                          kFlag))
  2198  019E  08ED               	movf	_transmitFlag,f
  2199  019F  1D03               	skipz
  2200  01A0  29A8               	goto	l2133
  2201  01A1  08ED               	movf	_transmitFlag,f
  2202  01A2  1903               	btfsc	3,2
  2203  01A3  1A0C               	btfsc	12,4	;volatile
  2204  01A4  2B7C               	goto	l2179
  2205  01A5  086C               	movf	_playbackFlag,w
  2206  01A6  1903               	btfsc	3,2
  2207  01A7  2B7C               	goto	l2179
  2208  01A8                     l2133:	
  2209                           
  2210                           ;beacon_functions.c: 473: {
  2211                           ;beacon_functions.c: 474: _delay((unsigned long)((200)*(16000000/4000.0)));
  2212  01A8  3005               	movlw	5
  2213  01A9  00C5               	movwf	??_GPStoAudio+2
  2214  01AA  300F               	movlw	15
  2215  01AB  00C4               	movwf	??_GPStoAudio+1
  2216  01AC  30F4               	movlw	244
  2217  01AD  00C3               	movwf	??_GPStoAudio
  2218  01AE                     u2457:	
  2219  01AE  0BC3               	decfsz	??_GPStoAudio,f
  2220  01AF  29AE               	goto	u2457
  2221  01B0  0BC4               	decfsz	??_GPStoAudio+1,f
  2222  01B1  29AE               	goto	u2457
  2223  01B2  0BC5               	decfsz	??_GPStoAudio+2,f
  2224  01B3  29AE               	goto	u2457
  2225                           
  2226                           ;beacon_functions.c: 475: PlayAddress(0x0, 0xC07);
  2227  01B4  3000               	movlw	0
  2228  01B5  0020               	movlb	0	; select bank0
  2229  01B6  00B4               	movwf	PlayAddress@startAddress+3
  2230  01B7  3000               	movlw	0
  2231  01B8  00B3               	movwf	PlayAddress@startAddress+2
  2232  01B9  3000               	movlw	0
  2233  01BA  00B2               	movwf	PlayAddress@startAddress+1
  2234  01BB  3000               	movlw	0
  2235  01BC  00B1               	movwf	PlayAddress@startAddress
  2236  01BD  3000               	movlw	0
  2237  01BE  00B8               	movwf	PlayAddress@endAddress+3
  2238  01BF  3000               	movlw	0
  2239  01C0  00B7               	movwf	PlayAddress@endAddress+2
  2240  01C1  300C               	movlw	12
  2241  01C2  00B6               	movwf	PlayAddress@endAddress+1
  2242  01C3  3007               	movlw	7
  2243  01C4  00B5               	movwf	PlayAddress@endAddress
  2244  01C5  3184  24DC  3180   	fcall	_PlayAddress
  2245                           
  2246                           ;beacon_functions.c: 476: }
  2247                           ;beacon_functions.c: 478: while((transmitFlag || (!transmitFlag && !PORTAbits.RA4 && pla
      +                          ybackFlag)) && (x < 21))
  2248  01C8  0020               	movlb	0	; select bank0
  2249  01C9  2B7C               	goto	l2179
  2250  01CA                     l2137:	
  2251                           
  2252                           ;beacon_functions.c: 479: {
  2253                           ;beacon_functions.c: 480: _delay((unsigned long)((200)*(16000000/4000.0)));
  2254  01CA  3005               	movlw	5
  2255  01CB  0020               	movlb	0	; select bank0
  2256  01CC  00C5               	movwf	??_GPStoAudio+2
  2257  01CD  300F               	movlw	15
  2258  01CE  00C4               	movwf	??_GPStoAudio+1
  2259  01CF  30F4               	movlw	244
  2260  01D0  00C3               	movwf	??_GPStoAudio
  2261  01D1                     u2467:	
  2262  01D1  0BC3               	decfsz	??_GPStoAudio,f
  2263  01D2  29D1               	goto	u2467
  2264  01D3  0BC4               	decfsz	??_GPStoAudio+1,f
  2265  01D4  29D1               	goto	u2467
  2266  01D5  0BC5               	decfsz	??_GPStoAudio+2,f
  2267  01D6  29D1               	goto	u2467
  2268                           
  2269                           ;beacon_functions.c: 481: switch (datas[x]) {
  2270  01D7  2B3D               	goto	l2175
  2271  01D8                     l2139:	
  2272                           ;beacon_functions.c: 482: case '0':
  2273                           
  2274                           
  2275                           ;beacon_functions.c: 483: PlayAddress(0xC07, 0x1560);
  2276  01D8  3000               	movlw	0
  2277  01D9  0020               	movlb	0	; select bank0
  2278  01DA  00B4               	movwf	PlayAddress@startAddress+3
  2279  01DB  3000               	movlw	0
  2280  01DC  00B3               	movwf	PlayAddress@startAddress+2
  2281  01DD  300C               	movlw	12
  2282  01DE  00B2               	movwf	PlayAddress@startAddress+1
  2283  01DF  3007               	movlw	7
  2284  01E0  00B1               	movwf	PlayAddress@startAddress
  2285  01E1  3000               	movlw	0
  2286  01E2  00B8               	movwf	PlayAddress@endAddress+3
  2287  01E3  3000               	movlw	0
  2288  01E4  00B7               	movwf	PlayAddress@endAddress+2
  2289  01E5  3015               	movlw	21
  2290  01E6  00B6               	movwf	PlayAddress@endAddress+1
  2291  01E7  3060               	movlw	96
  2292  01E8  00B5               	movwf	PlayAddress@endAddress
  2293  01E9  3184  24DC  3180   	fcall	_PlayAddress
  2294                           
  2295                           ;beacon_functions.c: 484: break;
  2296  01EC  2B77               	goto	l2177
  2297  01ED                     l2141:	
  2298                           ;beacon_functions.c: 485: case '1' :
  2299                           
  2300                           
  2301                           ;beacon_functions.c: 486: PlayAddress(0x1560, 0x2088);
  2302  01ED  3000               	movlw	0
  2303  01EE  0020               	movlb	0	; select bank0
  2304  01EF  00B4               	movwf	PlayAddress@startAddress+3
  2305  01F0  3000               	movlw	0
  2306  01F1  00B3               	movwf	PlayAddress@startAddress+2
  2307  01F2  3015               	movlw	21
  2308  01F3  00B2               	movwf	PlayAddress@startAddress+1
  2309  01F4  3060               	movlw	96
  2310  01F5  00B1               	movwf	PlayAddress@startAddress
  2311  01F6  3000               	movlw	0
  2312  01F7  00B8               	movwf	PlayAddress@endAddress+3
  2313  01F8  3000               	movlw	0
  2314  01F9  00B7               	movwf	PlayAddress@endAddress+2
  2315  01FA  3020               	movlw	32
  2316  01FB  00B6               	movwf	PlayAddress@endAddress+1
  2317  01FC  3088               	movlw	136
  2318  01FD  00B5               	movwf	PlayAddress@endAddress
  2319  01FE  3184  24DC  3180   	fcall	_PlayAddress
  2320                           
  2321                           ;beacon_functions.c: 487: break;
  2322  0201  2B77               	goto	l2177
  2323  0202                     l2143:	
  2324                           ;beacon_functions.c: 488: case '2':
  2325                           
  2326                           
  2327                           ;beacon_functions.c: 489: PlayAddress(0x2088, 0x2D85);
  2328  0202  3000               	movlw	0
  2329  0203  0020               	movlb	0	; select bank0
  2330  0204  00B4               	movwf	PlayAddress@startAddress+3
  2331  0205  3000               	movlw	0
  2332  0206  00B3               	movwf	PlayAddress@startAddress+2
  2333  0207  3020               	movlw	32
  2334  0208  00B2               	movwf	PlayAddress@startAddress+1
  2335  0209  3088               	movlw	136
  2336  020A  00B1               	movwf	PlayAddress@startAddress
  2337  020B  3000               	movlw	0
  2338  020C  00B8               	movwf	PlayAddress@endAddress+3
  2339  020D  3000               	movlw	0
  2340  020E  00B7               	movwf	PlayAddress@endAddress+2
  2341  020F  302D               	movlw	45
  2342  0210  00B6               	movwf	PlayAddress@endAddress+1
  2343  0211  3085               	movlw	133
  2344  0212  00B5               	movwf	PlayAddress@endAddress
  2345  0213  3184  24DC  3180   	fcall	_PlayAddress
  2346                           
  2347                           ;beacon_functions.c: 490: break;
  2348  0216  2B77               	goto	l2177
  2349  0217                     l2145:	
  2350                           ;beacon_functions.c: 491: case '3' :
  2351                           
  2352                           
  2353                           ;beacon_functions.c: 492: PlayAddress(0x2D85, 0x346A);
  2354  0217  3000               	movlw	0
  2355  0218  0020               	movlb	0	; select bank0
  2356  0219  00B4               	movwf	PlayAddress@startAddress+3
  2357  021A  3000               	movlw	0
  2358  021B  00B3               	movwf	PlayAddress@startAddress+2
  2359  021C  302D               	movlw	45
  2360  021D  00B2               	movwf	PlayAddress@startAddress+1
  2361  021E  3085               	movlw	133
  2362  021F  00B1               	movwf	PlayAddress@startAddress
  2363  0220  3000               	movlw	0
  2364  0221  00B8               	movwf	PlayAddress@endAddress+3
  2365  0222  3000               	movlw	0
  2366  0223  00B7               	movwf	PlayAddress@endAddress+2
  2367  0224  3034               	movlw	52
  2368  0225  00B6               	movwf	PlayAddress@endAddress+1
  2369  0226  306A               	movlw	106
  2370  0227  00B5               	movwf	PlayAddress@endAddress
  2371  0228  3184  24DC  3180   	fcall	_PlayAddress
  2372                           
  2373                           ;beacon_functions.c: 493: break;
  2374  022B  2B77               	goto	l2177
  2375  022C                     l2147:	
  2376                           ;beacon_functions.c: 494: case '4':
  2377                           
  2378                           
  2379                           ;beacon_functions.c: 495: PlayAddress(0x346A, 0x3B04);
  2380  022C  3000               	movlw	0
  2381  022D  0020               	movlb	0	; select bank0
  2382  022E  00B4               	movwf	PlayAddress@startAddress+3
  2383  022F  3000               	movlw	0
  2384  0230  00B3               	movwf	PlayAddress@startAddress+2
  2385  0231  3034               	movlw	52
  2386  0232  00B2               	movwf	PlayAddress@startAddress+1
  2387  0233  306A               	movlw	106
  2388  0234  00B1               	movwf	PlayAddress@startAddress
  2389  0235  3000               	movlw	0
  2390  0236  00B8               	movwf	PlayAddress@endAddress+3
  2391  0237  3000               	movlw	0
  2392  0238  00B7               	movwf	PlayAddress@endAddress+2
  2393  0239  303B               	movlw	59
  2394  023A  00B6               	movwf	PlayAddress@endAddress+1
  2395  023B  3004               	movlw	4
  2396  023C  00B5               	movwf	PlayAddress@endAddress
  2397  023D  3184  24DC  3180   	fcall	_PlayAddress
  2398                           
  2399                           ;beacon_functions.c: 496: break;
  2400  0240  2B77               	goto	l2177
  2401  0241                     l2149:	
  2402                           ;beacon_functions.c: 497: case '5' :
  2403                           
  2404                           
  2405                           ;beacon_functions.c: 498: PlayAddress(0x3B04, 0x4511);
  2406  0241  3000               	movlw	0
  2407  0242  0020               	movlb	0	; select bank0
  2408  0243  00B4               	movwf	PlayAddress@startAddress+3
  2409  0244  3000               	movlw	0
  2410  0245  00B3               	movwf	PlayAddress@startAddress+2
  2411  0246  303B               	movlw	59
  2412  0247  00B2               	movwf	PlayAddress@startAddress+1
  2413  0248  3004               	movlw	4
  2414  0249  00B1               	movwf	PlayAddress@startAddress
  2415  024A  3000               	movlw	0
  2416  024B  00B8               	movwf	PlayAddress@endAddress+3
  2417  024C  3000               	movlw	0
  2418  024D  00B7               	movwf	PlayAddress@endAddress+2
  2419  024E  3045               	movlw	69
  2420  024F  00B6               	movwf	PlayAddress@endAddress+1
  2421  0250  3011               	movlw	17
  2422  0251  00B5               	movwf	PlayAddress@endAddress
  2423  0252  3184  24DC  3180   	fcall	_PlayAddress
  2424                           
  2425                           ;beacon_functions.c: 499: break;
  2426  0255  2B77               	goto	l2177
  2427  0256                     l2151:	
  2428                           ;beacon_functions.c: 500: case '6':
  2429                           
  2430                           
  2431                           ;beacon_functions.c: 501: PlayAddress(0x4511, 0x50CF);
  2432  0256  3000               	movlw	0
  2433  0257  0020               	movlb	0	; select bank0
  2434  0258  00B4               	movwf	PlayAddress@startAddress+3
  2435  0259  3000               	movlw	0
  2436  025A  00B3               	movwf	PlayAddress@startAddress+2
  2437  025B  3045               	movlw	69
  2438  025C  00B2               	movwf	PlayAddress@startAddress+1
  2439  025D  3011               	movlw	17
  2440  025E  00B1               	movwf	PlayAddress@startAddress
  2441  025F  3000               	movlw	0
  2442  0260  00B8               	movwf	PlayAddress@endAddress+3
  2443  0261  3000               	movlw	0
  2444  0262  00B7               	movwf	PlayAddress@endAddress+2
  2445  0263  3050               	movlw	80
  2446  0264  00B6               	movwf	PlayAddress@endAddress+1
  2447  0265  30CF               	movlw	207
  2448  0266  00B5               	movwf	PlayAddress@endAddress
  2449  0267  3184  24DC  3180   	fcall	_PlayAddress
  2450                           
  2451                           ;beacon_functions.c: 502: break;
  2452  026A  2B77               	goto	l2177
  2453  026B                     l2153:	
  2454                           ;beacon_functions.c: 503: case '7' :
  2455                           
  2456                           
  2457                           ;beacon_functions.c: 504: PlayAddress(0x50CF, 0x5C7A);
  2458  026B  3000               	movlw	0
  2459  026C  0020               	movlb	0	; select bank0
  2460  026D  00B4               	movwf	PlayAddress@startAddress+3
  2461  026E  3000               	movlw	0
  2462  026F  00B3               	movwf	PlayAddress@startAddress+2
  2463  0270  3050               	movlw	80
  2464  0271  00B2               	movwf	PlayAddress@startAddress+1
  2465  0272  30CF               	movlw	207
  2466  0273  00B1               	movwf	PlayAddress@startAddress
  2467  0274  3000               	movlw	0
  2468  0275  00B8               	movwf	PlayAddress@endAddress+3
  2469  0276  3000               	movlw	0
  2470  0277  00B7               	movwf	PlayAddress@endAddress+2
  2471  0278  305C               	movlw	92
  2472  0279  00B6               	movwf	PlayAddress@endAddress+1
  2473  027A  307A               	movlw	122
  2474  027B  00B5               	movwf	PlayAddress@endAddress
  2475  027C  3184  24DC  3180   	fcall	_PlayAddress
  2476                           
  2477                           ;beacon_functions.c: 505: break;
  2478  027F  2B77               	goto	l2177
  2479  0280                     l2155:	
  2480                           ;beacon_functions.c: 506: case '8':
  2481                           
  2482                           
  2483                           ;beacon_functions.c: 507: PlayAddress(0x5C7A, 0x6300);
  2484  0280  3000               	movlw	0
  2485  0281  0020               	movlb	0	; select bank0
  2486  0282  00B4               	movwf	PlayAddress@startAddress+3
  2487  0283  3000               	movlw	0
  2488  0284  00B3               	movwf	PlayAddress@startAddress+2
  2489  0285  305C               	movlw	92
  2490  0286  00B2               	movwf	PlayAddress@startAddress+1
  2491  0287  307A               	movlw	122
  2492  0288  00B1               	movwf	PlayAddress@startAddress
  2493  0289  3000               	movlw	0
  2494  028A  00B8               	movwf	PlayAddress@endAddress+3
  2495  028B  3000               	movlw	0
  2496  028C  00B7               	movwf	PlayAddress@endAddress+2
  2497  028D  3063               	movlw	99
  2498  028E  00B6               	movwf	PlayAddress@endAddress+1
  2499  028F  3000               	movlw	0
  2500  0290  00B5               	movwf	PlayAddress@endAddress
  2501  0291  3184  24DC  3180   	fcall	_PlayAddress
  2502                           
  2503                           ;beacon_functions.c: 508: break;
  2504  0294  2B77               	goto	l2177
  2505  0295                     l2157:	
  2506                           ;beacon_functions.c: 509: case '9' :
  2507                           
  2508                           
  2509                           ;beacon_functions.c: 510: PlayAddress(0x6300, 0x6DA0);
  2510  0295  3000               	movlw	0
  2511  0296  0020               	movlb	0	; select bank0
  2512  0297  00B4               	movwf	PlayAddress@startAddress+3
  2513  0298  3000               	movlw	0
  2514  0299  00B3               	movwf	PlayAddress@startAddress+2
  2515  029A  3063               	movlw	99
  2516  029B  00B2               	movwf	PlayAddress@startAddress+1
  2517  029C  3000               	movlw	0
  2518  029D  00B1               	movwf	PlayAddress@startAddress
  2519  029E  3000               	movlw	0
  2520  029F  00B8               	movwf	PlayAddress@endAddress+3
  2521  02A0  3000               	movlw	0
  2522  02A1  00B7               	movwf	PlayAddress@endAddress+2
  2523  02A2  306D               	movlw	109
  2524  02A3  00B6               	movwf	PlayAddress@endAddress+1
  2525  02A4  30A0               	movlw	160
  2526  02A5  00B5               	movwf	PlayAddress@endAddress
  2527  02A6  3184  24DC  3180   	fcall	_PlayAddress
  2528                           
  2529                           ;beacon_functions.c: 511: break;
  2530  02A9  2B77               	goto	l2177
  2531  02AA                     l2159:	
  2532                           ;beacon_functions.c: 512: case 'N':
  2533                           
  2534                           
  2535                           ;beacon_functions.c: 513: PlayAddress(0x6DA0, 0x78AF);
  2536  02AA  3000               	movlw	0
  2537  02AB  0020               	movlb	0	; select bank0
  2538  02AC  00B4               	movwf	PlayAddress@startAddress+3
  2539  02AD  3000               	movlw	0
  2540  02AE  00B3               	movwf	PlayAddress@startAddress+2
  2541  02AF  306D               	movlw	109
  2542  02B0  00B2               	movwf	PlayAddress@startAddress+1
  2543  02B1  30A0               	movlw	160
  2544  02B2  00B1               	movwf	PlayAddress@startAddress
  2545  02B3  3000               	movlw	0
  2546  02B4  00B8               	movwf	PlayAddress@endAddress+3
  2547  02B5  3000               	movlw	0
  2548  02B6  00B7               	movwf	PlayAddress@endAddress+2
  2549  02B7  3078               	movlw	120
  2550  02B8  00B6               	movwf	PlayAddress@endAddress+1
  2551  02B9  30AF               	movlw	175
  2552  02BA  00B5               	movwf	PlayAddress@endAddress
  2553  02BB  3184  24DC  3180   	fcall	_PlayAddress
  2554                           
  2555                           ;beacon_functions.c: 514: break;
  2556  02BE  2B77               	goto	l2177
  2557  02BF                     l2161:	
  2558                           ;beacon_functions.c: 515: case 'S' :
  2559                           
  2560                           
  2561                           ;beacon_functions.c: 516: PlayAddress(0x78AF, 0x8214);
  2562  02BF  3000               	movlw	0
  2563  02C0  0020               	movlb	0	; select bank0
  2564  02C1  00B4               	movwf	PlayAddress@startAddress+3
  2565  02C2  3000               	movlw	0
  2566  02C3  00B3               	movwf	PlayAddress@startAddress+2
  2567  02C4  3078               	movlw	120
  2568  02C5  00B2               	movwf	PlayAddress@startAddress+1
  2569  02C6  30AF               	movlw	175
  2570  02C7  00B1               	movwf	PlayAddress@startAddress
  2571  02C8  3000               	movlw	0
  2572  02C9  00B8               	movwf	PlayAddress@endAddress+3
  2573  02CA  3000               	movlw	0
  2574  02CB  00B7               	movwf	PlayAddress@endAddress+2
  2575  02CC  3082               	movlw	130
  2576  02CD  00B6               	movwf	PlayAddress@endAddress+1
  2577  02CE  3014               	movlw	20
  2578  02CF  00B5               	movwf	PlayAddress@endAddress
  2579  02D0  3184  24DC  3180   	fcall	_PlayAddress
  2580                           
  2581                           ;beacon_functions.c: 517: break;
  2582  02D3  2B77               	goto	l2177
  2583  02D4                     l2163:	
  2584                           ;beacon_functions.c: 518: case 'E':
  2585                           
  2586                           
  2587                           ;beacon_functions.c: 519: PlayAddress(0x8214, 0x8D4F);
  2588  02D4  3000               	movlw	0
  2589  02D5  0020               	movlb	0	; select bank0
  2590  02D6  00B4               	movwf	PlayAddress@startAddress+3
  2591  02D7  3000               	movlw	0
  2592  02D8  00B3               	movwf	PlayAddress@startAddress+2
  2593  02D9  3082               	movlw	130
  2594  02DA  00B2               	movwf	PlayAddress@startAddress+1
  2595  02DB  3014               	movlw	20
  2596  02DC  00B1               	movwf	PlayAddress@startAddress
  2597  02DD  3000               	movlw	0
  2598  02DE  00B8               	movwf	PlayAddress@endAddress+3
  2599  02DF  3000               	movlw	0
  2600  02E0  00B7               	movwf	PlayAddress@endAddress+2
  2601  02E1  308D               	movlw	141
  2602  02E2  00B6               	movwf	PlayAddress@endAddress+1
  2603  02E3  304F               	movlw	79
  2604  02E4  00B5               	movwf	PlayAddress@endAddress
  2605  02E5  3184  24DC  3180   	fcall	_PlayAddress
  2606                           
  2607                           ;beacon_functions.c: 520: break;
  2608  02E8  2B77               	goto	l2177
  2609  02E9                     l2165:	
  2610                           ;beacon_functions.c: 521: case 'W' :
  2611                           
  2612                           
  2613                           ;beacon_functions.c: 522: PlayAddress(0x8D4F, 0x9672);
  2614  02E9  3000               	movlw	0
  2615  02EA  0020               	movlb	0	; select bank0
  2616  02EB  00B4               	movwf	PlayAddress@startAddress+3
  2617  02EC  3000               	movlw	0
  2618  02ED  00B3               	movwf	PlayAddress@startAddress+2
  2619  02EE  308D               	movlw	141
  2620  02EF  00B2               	movwf	PlayAddress@startAddress+1
  2621  02F0  304F               	movlw	79
  2622  02F1  00B1               	movwf	PlayAddress@startAddress
  2623  02F2  3000               	movlw	0
  2624  02F3  00B8               	movwf	PlayAddress@endAddress+3
  2625  02F4  3000               	movlw	0
  2626  02F5  00B7               	movwf	PlayAddress@endAddress+2
  2627  02F6  3096               	movlw	150
  2628  02F7  00B6               	movwf	PlayAddress@endAddress+1
  2629  02F8  3072               	movlw	114
  2630  02F9  00B5               	movwf	PlayAddress@endAddress
  2631  02FA  3184  24DC  3180   	fcall	_PlayAddress
  2632                           
  2633                           ;beacon_functions.c: 523: break;
  2634  02FD  2B77               	goto	l2177
  2635  02FE                     l2167:	
  2636                           ;beacon_functions.c: 524: case 'D':
  2637                           
  2638                           
  2639                           ;beacon_functions.c: 525: PlayAddress(0x9672, 0xA4C8);
  2640  02FE  3000               	movlw	0
  2641  02FF  0020               	movlb	0	; select bank0
  2642  0300  00B4               	movwf	PlayAddress@startAddress+3
  2643  0301  3000               	movlw	0
  2644  0302  00B3               	movwf	PlayAddress@startAddress+2
  2645  0303  3096               	movlw	150
  2646  0304  00B2               	movwf	PlayAddress@startAddress+1
  2647  0305  3072               	movlw	114
  2648  0306  00B1               	movwf	PlayAddress@startAddress
  2649  0307  3000               	movlw	0
  2650  0308  00B8               	movwf	PlayAddress@endAddress+3
  2651  0309  3000               	movlw	0
  2652  030A  00B7               	movwf	PlayAddress@endAddress+2
  2653  030B  30A4               	movlw	164
  2654  030C  00B6               	movwf	PlayAddress@endAddress+1
  2655  030D  30C8               	movlw	200
  2656  030E  00B5               	movwf	PlayAddress@endAddress
  2657  030F  3184  24DC  3180   	fcall	_PlayAddress
  2658                           
  2659                           ;beacon_functions.c: 526: break;
  2660  0312  2B77               	goto	l2177
  2661  0313                     l2169:	
  2662                           ;beacon_functions.c: 527: case 'M' :
  2663                           
  2664                           
  2665                           ;beacon_functions.c: 528: PlayAddress(0xA4C8, 0xB110);
  2666  0313  3000               	movlw	0
  2667  0314  0020               	movlb	0	; select bank0
  2668  0315  00B4               	movwf	PlayAddress@startAddress+3
  2669  0316  3000               	movlw	0
  2670  0317  00B3               	movwf	PlayAddress@startAddress+2
  2671  0318  30A4               	movlw	164
  2672  0319  00B2               	movwf	PlayAddress@startAddress+1
  2673  031A  30C8               	movlw	200
  2674  031B  00B1               	movwf	PlayAddress@startAddress
  2675  031C  3000               	movlw	0
  2676  031D  00B8               	movwf	PlayAddress@endAddress+3
  2677  031E  3000               	movlw	0
  2678  031F  00B7               	movwf	PlayAddress@endAddress+2
  2679  0320  30B1               	movlw	177
  2680  0321  00B6               	movwf	PlayAddress@endAddress+1
  2681  0322  3010               	movlw	16
  2682  0323  00B5               	movwf	PlayAddress@endAddress
  2683  0324  3184  24DC  3180   	fcall	_PlayAddress
  2684                           
  2685                           ;beacon_functions.c: 529: break;
  2686  0327  2B77               	goto	l2177
  2687  0328                     l2171:	
  2688                           ;beacon_functions.c: 530: case 'X':
  2689                           
  2690                           
  2691                           ;beacon_functions.c: 531: PlayAddress(0xB110, 0xBB68);
  2692  0328  3000               	movlw	0
  2693  0329  0020               	movlb	0	; select bank0
  2694  032A  00B4               	movwf	PlayAddress@startAddress+3
  2695  032B  3000               	movlw	0
  2696  032C  00B3               	movwf	PlayAddress@startAddress+2
  2697  032D  30B1               	movlw	177
  2698  032E  00B2               	movwf	PlayAddress@startAddress+1
  2699  032F  3010               	movlw	16
  2700  0330  00B1               	movwf	PlayAddress@startAddress
  2701  0331  3000               	movlw	0
  2702  0332  00B8               	movwf	PlayAddress@endAddress+3
  2703  0333  3000               	movlw	0
  2704  0334  00B7               	movwf	PlayAddress@endAddress+2
  2705  0335  30BB               	movlw	187
  2706  0336  00B6               	movwf	PlayAddress@endAddress+1
  2707  0337  3068               	movlw	104
  2708  0338  00B5               	movwf	PlayAddress@endAddress
  2709  0339  3184  24DC  3180   	fcall	_PlayAddress
  2710                           
  2711                           ;beacon_functions.c: 535: }
  2712                           
  2713                           ;beacon_functions.c: 534: break;
  2714                           
  2715                           ;beacon_functions.c: 533: default:
  2716                           
  2717                           ;beacon_functions.c: 532: break;
  2718  033C  2B77               	goto	l2177
  2719  033D                     l2175:	
  2720  033D  0020               	movlb	0	; select bank0
  2721  033E  085B               	movf	GPStoAudio@x,w
  2722  033F  3E46               	addlw	GPStoAudio@datas& (0+255)
  2723  0340  0086               	movwf	6
  2724  0341  0187               	clrf	7
  2725  0342  0801               	movf	1,w
  2726                           
  2727                           ; Switch size 1, requested type "space"
  2728                           ; Number of cases is 17, Range of values is 48 to 88
  2729                           ; switch strategies available:
  2730                           ; Name         Instructions Cycles
  2731                           ; simple_byte           52    27 (average)
  2732                           ; direct_byte           91     9 (fixed)
  2733                           ; jumptable            263     9 (fixed)
  2734                           ;	Chosen strategy is simple_byte
  2735  0343  3A30               	xorlw	48	; case 48
  2736  0344  1903               	skipnz
  2737  0345  29D8               	goto	l2139
  2738  0346  3A01               	xorlw	1	; case 49
  2739  0347  1903               	skipnz
  2740  0348  29ED               	goto	l2141
  2741  0349  3A03               	xorlw	3	; case 50
  2742  034A  1903               	skipnz
  2743  034B  2A02               	goto	l2143
  2744  034C  3A01               	xorlw	1	; case 51
  2745  034D  1903               	skipnz
  2746  034E  2A17               	goto	l2145
  2747  034F  3A07               	xorlw	7	; case 52
  2748  0350  1903               	skipnz
  2749  0351  2A2C               	goto	l2147
  2750  0352  3A01               	xorlw	1	; case 53
  2751  0353  1903               	skipnz
  2752  0354  2A41               	goto	l2149
  2753  0355  3A03               	xorlw	3	; case 54
  2754  0356  1903               	skipnz
  2755  0357  2A56               	goto	l2151
  2756  0358  3A01               	xorlw	1	; case 55
  2757  0359  1903               	skipnz
  2758  035A  2A6B               	goto	l2153
  2759  035B  3A0F               	xorlw	15	; case 56
  2760  035C  1903               	skipnz
  2761  035D  2A80               	goto	l2155
  2762  035E  3A01               	xorlw	1	; case 57
  2763  035F  1903               	skipnz
  2764  0360  2A95               	goto	l2157
  2765  0361  3A7D               	xorlw	125	; case 68
  2766  0362  1903               	skipnz
  2767  0363  2AFE               	goto	l2167
  2768  0364  3A01               	xorlw	1	; case 69
  2769  0365  1903               	skipnz
  2770  0366  2AD4               	goto	l2163
  2771  0367  3A08               	xorlw	8	; case 77
  2772  0368  1903               	skipnz
  2773  0369  2B13               	goto	l2169
  2774  036A  3A03               	xorlw	3	; case 78
  2775  036B  1903               	skipnz
  2776  036C  2AAA               	goto	l2159
  2777  036D  3A1D               	xorlw	29	; case 83
  2778  036E  1903               	skipnz
  2779  036F  2ABF               	goto	l2161
  2780  0370  3A04               	xorlw	4	; case 87
  2781  0371  1903               	skipnz
  2782  0372  2AE9               	goto	l2165
  2783  0373  3A0F               	xorlw	15	; case 88
  2784  0374  1903               	skipnz
  2785  0375  2B28               	goto	l2171
  2786  0376  2B77               	goto	l2177
  2787  0377                     l2177:	
  2788                           
  2789                           ;beacon_functions.c: 536: x++;
  2790  0377  3001               	movlw	1
  2791  0378  0020               	movlb	0	; select bank0
  2792  0379  07DB               	addwf	GPStoAudio@x,f
  2793  037A  3000               	movlw	0
  2794  037B  3DDC               	addwfc	GPStoAudio@x+1,f
  2795  037C                     l2179:	
  2796  037C  0020               	movlb	0	; select bank0
  2797  037D  08ED               	movf	_transmitFlag,f
  2798  037E  1D03               	skipz
  2799  037F  2B88               	goto	l2187
  2800  0380  08ED               	movf	_transmitFlag,f
  2801  0381  1D03               	skipz
  2802  0382  0008               	return
  2803  0383  1A0C               	btfsc	12,4	;volatile
  2804  0384  0008               	return
  2805  0385  086C               	movf	_playbackFlag,w
  2806  0386  1903               	btfsc	3,2
  2807  0387  0008               	return
  2808  0388                     l2187:	
  2809  0388  085C               	movf	GPStoAudio@x+1,w
  2810  0389  3A80               	xorlw	128
  2811  038A  00C3               	movwf	??_GPStoAudio
  2812  038B  3080               	movlw	128
  2813  038C  0243               	subwf	??_GPStoAudio,w
  2814  038D  1D03               	skipz
  2815  038E  2B91               	goto	u2165
  2816  038F  3015               	movlw	21
  2817  0390  025B               	subwf	GPStoAudio@x,w
  2818  0391                     u2165:	
  2819  0391  1C03               	skipc
  2820  0392  29CA               	goto	l2137
  2821  0393  0020               	movlb	0	; select bank0
  2822  0394  0008               	return
  2823  0395                     __end_of_GPStoAudio:	
  2824                           
  2825                           	psect	text5
  2826  05FE                     __ptext5:	
  2827 ;; *************** function ___awmod *****************
  2828 ;; Defined at:
  2829 ;;		line 6 in file "C:\Program Files (x86)\Microchip\xc8\v1.33\sources\common\awmod.c"
  2830 ;; Parameters:    Size  Location     Type
  2831 ;;  divisor         2    3[COMMON] int 
  2832 ;;  dividend        2    5[COMMON] int 
  2833 ;; Auto vars:     Size  Location     Type
  2834 ;;  sign            1    1[BANK0 ] unsigned char 
  2835 ;;  counter         1    0[BANK0 ] unsigned char 
  2836 ;; Return value:  Size  Location     Type
  2837 ;;                  2    3[COMMON] int 
  2838 ;; Registers used:
  2839 ;;		wreg, status,2, status,0
  2840 ;; Tracked objects:
  2841 ;;		On entry : 0/0
  2842 ;;		On exit  : 0/0
  2843 ;;		Unchanged: 0/0
  2844 ;; Data sizes:     COMMON   BANK0   BANK1   BANK2   BANK3   BANK4   BANK5
  2845 ;;      Params:         4       0       0       0       0       0       0
  2846 ;;      Locals:         0       2       0       0       0       0       0
  2847 ;;      Temps:          1       0       0       0       0       0       0
  2848 ;;      Totals:         5       2       0       0       0       0       0
  2849 ;;Total ram usage:        7 bytes
  2850 ;; Hardware stack levels used:    1
  2851 ;; Hardware stack levels required when called:    2
  2852 ;; This function calls:
  2853 ;;		Nothing
  2854 ;; This function is called by:
  2855 ;;		_GPStoAudio
  2856 ;; This function uses a non-reentrant model
  2857 ;;
  2858                           
  2859                           
  2860                           ;psect for function ___awmod
  2861  05FE                     ___awmod:	
  2862                           
  2863                           ;incstack = 0
  2864                           ; Regs used in ___awmod: [wreg+status,2+status,0]
  2865  05FE  0020               	movlb	0	; select bank0
  2866  05FF  01A1               	clrf	___awmod@sign
  2867  0600  1FF6               	btfss	___awmod@dividend+1,7
  2868  0601  2E09               	goto	l2051
  2869  0602  09F5               	comf	___awmod@dividend,f
  2870  0603  09F6               	comf	___awmod@dividend+1,f
  2871  0604  0AF5               	incf	___awmod@dividend,f
  2872  0605  1903               	skipnz
  2873  0606  0AF6               	incf	___awmod@dividend+1,f
  2874  0607  01A1               	clrf	___awmod@sign
  2875  0608  0AA1               	incf	___awmod@sign,f
  2876  0609                     l2051:	
  2877  0609  1FF4               	btfss	___awmod@divisor+1,7
  2878  060A  2E10               	goto	l2055
  2879  060B  09F3               	comf	___awmod@divisor,f
  2880  060C  09F4               	comf	___awmod@divisor+1,f
  2881  060D  0AF3               	incf	___awmod@divisor,f
  2882  060E  1903               	skipnz
  2883  060F  0AF4               	incf	___awmod@divisor+1,f
  2884  0610                     l2055:	
  2885  0610  0874               	movf	___awmod@divisor+1,w
  2886  0611  0473               	iorwf	___awmod@divisor,w
  2887  0612  1903               	skipnz
  2888  0613  2E37               	goto	l2073
  2889  0614  01A0               	clrf	___awmod@counter
  2890  0615  0AA0               	incf	___awmod@counter,f
  2891  0616                     l2063:	
  2892  0616  1BF4               	btfsc	___awmod@divisor+1,7
  2893  0617  2E22               	goto	l2065
  2894  0618  3001               	movlw	1
  2895  0619                     u2025:	
  2896  0619  35F3               	lslf	___awmod@divisor,f
  2897  061A  0DF4               	rlf	___awmod@divisor+1,f
  2898  061B  0B89               	decfsz	9,f
  2899  061C  2E19               	goto	u2025
  2900  061D  3001               	movlw	1
  2901  061E  00F7               	movwf	??___awmod
  2902  061F  0877               	movf	??___awmod,w
  2903  0620  07A0               	addwf	___awmod@counter,f
  2904  0621  2E16               	goto	l2063
  2905  0622                     l2065:	
  2906  0622  0874               	movf	___awmod@divisor+1,w
  2907  0623  0276               	subwf	___awmod@dividend+1,w
  2908  0624  1D03               	skipz
  2909  0625  2E28               	goto	u2045
  2910  0626  0873               	movf	___awmod@divisor,w
  2911  0627  0275               	subwf	___awmod@dividend,w
  2912  0628                     u2045:	
  2913  0628  1C03               	skipc
  2914  0629  2E2E               	goto	l2069
  2915  062A  0873               	movf	___awmod@divisor,w
  2916  062B  02F5               	subwf	___awmod@dividend,f
  2917  062C  0874               	movf	___awmod@divisor+1,w
  2918  062D  3BF6               	subwfb	___awmod@dividend+1,f
  2919  062E                     l2069:	
  2920  062E  3001               	movlw	1
  2921  062F                     u2055:	
  2922  062F  36F4               	lsrf	___awmod@divisor+1,f
  2923  0630  0CF3               	rrf	___awmod@divisor,f
  2924  0631  0B89               	decfsz	9,f
  2925  0632  2E2F               	goto	u2055
  2926  0633  3001               	movlw	1
  2927  0634  02A0               	subwf	___awmod@counter,f
  2928  0635  1D03               	btfss	3,2
  2929  0636  2E22               	goto	l2065
  2930  0637                     l2073:	
  2931  0637  0821               	movf	___awmod@sign,w
  2932  0638  1903               	btfsc	3,2
  2933  0639  2E3F               	goto	l2077
  2934  063A  09F5               	comf	___awmod@dividend,f
  2935  063B  09F6               	comf	___awmod@dividend+1,f
  2936  063C  0AF5               	incf	___awmod@dividend,f
  2937  063D  1903               	skipnz
  2938  063E  0AF6               	incf	___awmod@dividend+1,f
  2939  063F                     l2077:	
  2940  063F  0876               	movf	___awmod@dividend+1,w
  2941  0640  01F4               	clrf	?___awmod+1
  2942  0641  07F4               	addwf	?___awmod+1,f
  2943  0642  0875               	movf	___awmod@dividend,w
  2944  0643  01F3               	clrf	?___awmod
  2945  0644  07F3               	addwf	?___awmod,f
  2946  0645  0008               	return
  2947  0646                     __end_of___awmod:	
  2948                           
  2949                           	psect	text6
  2950  05AA                     __ptext6:	
  2951 ;; *************** function ___awdiv *****************
  2952 ;; Defined at:
  2953 ;;		line 6 in file "C:\Program Files (x86)\Microchip\xc8\v1.33\sources\common\awdiv.c"
  2954 ;; Parameters:    Size  Location     Type
  2955 ;;  divisor         2    2[BANK0 ] int 
  2956 ;;  dividend        2    4[BANK0 ] int 
  2957 ;; Auto vars:     Size  Location     Type
  2958 ;;  quotient        2    9[BANK0 ] int 
  2959 ;;  sign            1    8[BANK0 ] unsigned char 
  2960 ;;  counter         1    7[BANK0 ] unsigned char 
  2961 ;; Return value:  Size  Location     Type
  2962 ;;                  2    2[BANK0 ] int 
  2963 ;; Registers used:
  2964 ;;		wreg, status,2, status,0
  2965 ;; Tracked objects:
  2966 ;;		On entry : 0/0
  2967 ;;		On exit  : 0/0
  2968 ;;		Unchanged: 0/0
  2969 ;; Data sizes:     COMMON   BANK0   BANK1   BANK2   BANK3   BANK4   BANK5
  2970 ;;      Params:         0       4       0       0       0       0       0
  2971 ;;      Locals:         0       4       0       0       0       0       0
  2972 ;;      Temps:          0       1       0       0       0       0       0
  2973 ;;      Totals:         0       9       0       0       0       0       0
  2974 ;;Total ram usage:        9 bytes
  2975 ;; Hardware stack levels used:    1
  2976 ;; Hardware stack levels required when called:    2
  2977 ;; This function calls:
  2978 ;;		Nothing
  2979 ;; This function is called by:
  2980 ;;		_GPStoAudio
  2981 ;; This function uses a non-reentrant model
  2982 ;;
  2983                           
  2984                           
  2985                           ;psect for function ___awdiv
  2986  05AA                     ___awdiv:	
  2987                           
  2988                           ;incstack = 0
  2989                           ; Regs used in ___awdiv: [wreg+status,2+status,0]
  2990  05AA  0020               	movlb	0	; select bank0
  2991  05AB  01A8               	clrf	___awdiv@sign
  2992  05AC  1FA3               	btfss	___awdiv@divisor+1,7
  2993  05AD  2DB5               	goto	l2007
  2994  05AE  09A2               	comf	___awdiv@divisor,f
  2995  05AF  09A3               	comf	___awdiv@divisor+1,f
  2996  05B0  0AA2               	incf	___awdiv@divisor,f
  2997  05B1  1903               	skipnz
  2998  05B2  0AA3               	incf	___awdiv@divisor+1,f
  2999  05B3  01A8               	clrf	___awdiv@sign
  3000  05B4  0AA8               	incf	___awdiv@sign,f
  3001  05B5                     l2007:	
  3002  05B5  1FA5               	btfss	___awdiv@dividend+1,7
  3003  05B6  2DC0               	goto	l2013
  3004  05B7  09A4               	comf	___awdiv@dividend,f
  3005  05B8  09A5               	comf	___awdiv@dividend+1,f
  3006  05B9  0AA4               	incf	___awdiv@dividend,f
  3007  05BA  1903               	skipnz
  3008  05BB  0AA5               	incf	___awdiv@dividend+1,f
  3009  05BC  3001               	movlw	1
  3010  05BD  00A6               	movwf	??___awdiv
  3011  05BE  0826               	movf	??___awdiv,w
  3012  05BF  06A8               	xorwf	___awdiv@sign,f
  3013  05C0                     l2013:	
  3014  05C0  01A9               	clrf	___awdiv@quotient
  3015  05C1  01AA               	clrf	___awdiv@quotient+1
  3016  05C2  0823               	movf	___awdiv@divisor+1,w
  3017  05C3  0422               	iorwf	___awdiv@divisor,w
  3018  05C4  1903               	skipnz
  3019  05C5  2DEF               	goto	l2035
  3020  05C6  01A7               	clrf	___awdiv@counter
  3021  05C7  0AA7               	incf	___awdiv@counter,f
  3022  05C8                     l2023:	
  3023  05C8  1BA3               	btfsc	___awdiv@divisor+1,7
  3024  05C9  2DD4               	goto	l2025
  3025  05CA  3001               	movlw	1
  3026  05CB                     u1925:	
  3027  05CB  35A2               	lslf	___awdiv@divisor,f
  3028  05CC  0DA3               	rlf	___awdiv@divisor+1,f
  3029  05CD  0B89               	decfsz	9,f
  3030  05CE  2DCB               	goto	u1925
  3031  05CF  3001               	movlw	1
  3032  05D0  00A6               	movwf	??___awdiv
  3033  05D1  0826               	movf	??___awdiv,w
  3034  05D2  07A7               	addwf	___awdiv@counter,f
  3035  05D3  2DC8               	goto	l2023
  3036  05D4                     l2025:	
  3037  05D4  3001               	movlw	1
  3038  05D5                     u1945:	
  3039  05D5  35A9               	lslf	___awdiv@quotient,f
  3040  05D6  0DAA               	rlf	___awdiv@quotient+1,f
  3041  05D7  0B89               	decfsz	9,f
  3042  05D8  2DD5               	goto	u1945
  3043  05D9  0823               	movf	___awdiv@divisor+1,w
  3044  05DA  0225               	subwf	___awdiv@dividend+1,w
  3045  05DB  1D03               	skipz
  3046  05DC  2DDF               	goto	u1955
  3047  05DD  0822               	movf	___awdiv@divisor,w
  3048  05DE  0224               	subwf	___awdiv@dividend,w
  3049  05DF                     u1955:	
  3050  05DF  1C03               	skipc
  3051  05E0  2DE6               	goto	l2031
  3052  05E1  0822               	movf	___awdiv@divisor,w
  3053  05E2  02A4               	subwf	___awdiv@dividend,f
  3054  05E3  0823               	movf	___awdiv@divisor+1,w
  3055  05E4  3BA5               	subwfb	___awdiv@dividend+1,f
  3056  05E5  1429               	bsf	___awdiv@quotient,0
  3057  05E6                     l2031:	
  3058  05E6  3001               	movlw	1
  3059  05E7                     u1965:	
  3060  05E7  36A3               	lsrf	___awdiv@divisor+1,f
  3061  05E8  0CA2               	rrf	___awdiv@divisor,f
  3062  05E9  0B89               	decfsz	9,f
  3063  05EA  2DE7               	goto	u1965
  3064  05EB  3001               	movlw	1
  3065  05EC  02A7               	subwf	___awdiv@counter,f
  3066  05ED  1D03               	btfss	3,2
  3067  05EE  2DD4               	goto	l2025
  3068  05EF                     l2035:	
  3069  05EF  0828               	movf	___awdiv@sign,w
  3070  05F0  1903               	btfsc	3,2
  3071  05F1  2DF7               	goto	l2039
  3072  05F2  09A9               	comf	___awdiv@quotient,f
  3073  05F3  09AA               	comf	___awdiv@quotient+1,f
  3074  05F4  0AA9               	incf	___awdiv@quotient,f
  3075  05F5  1903               	skipnz
  3076  05F6  0AAA               	incf	___awdiv@quotient+1,f
  3077  05F7                     l2039:	
  3078  05F7  082A               	movf	___awdiv@quotient+1,w
  3079  05F8  01A3               	clrf	?___awdiv+1
  3080  05F9  07A3               	addwf	?___awdiv+1,f
  3081  05FA  0829               	movf	___awdiv@quotient,w
  3082  05FB  01A2               	clrf	?___awdiv
  3083  05FC  07A2               	addwf	?___awdiv,f
  3084  05FD  0008               	return
  3085  05FE                     __end_of___awdiv:	
  3086                           
  3087                           	psect	text7
  3088  04DC                     __ptext7:	
  3089 ;; *************** function _PlayAddress *****************
  3090 ;; Defined at:
  3091 ;;		line 137 in file "beacon_functions.c"
  3092 ;; Parameters:    Size  Location     Type
  3093 ;;  startAddress    4   17[BANK0 ] long 
  3094 ;;  endAddress      4   21[BANK0 ] long 
  3095 ;; Auto vars:     Size  Location     Type
  3096 ;;  curr_address    4   29[BANK0 ] long 
  3097 ;; Return value:  Size  Location     Type
  3098 ;;		None               void
  3099 ;; Registers used:
  3100 ;;		wreg, fsr1l, fsr1h, status,2, status,0, pclath, cstack
  3101 ;; Tracked objects:
  3102 ;;		On entry : 0/0
  3103 ;;		On exit  : 0/0
  3104 ;;		Unchanged: 0/0
  3105 ;; Data sizes:     COMMON   BANK0   BANK1   BANK2   BANK3   BANK4   BANK5
  3106 ;;      Params:         0       8       0       0       0       0       0
  3107 ;;      Locals:         0       6       0       0       0       0       0
  3108 ;;      Temps:          0       4       0       0       0       0       0
  3109 ;;      Totals:         0      18       0       0       0       0       0
  3110 ;;Total ram usage:       18 bytes
  3111 ;; Hardware stack levels used:    1
  3112 ;; Hardware stack levels required when called:    5
  3113 ;; This function calls:
  3114 ;;		_ReadOverheadSPI
  3115 ;;		_ReadSPI
  3116 ;;		_WriteBuffer
  3117 ;; This function is called by:
  3118 ;;		_GPStoAudio
  3119 ;; This function uses a non-reentrant model
  3120 ;;
  3121                           
  3122                           
  3123                           ;psect for function _PlayAddress
  3124  04DC                     _PlayAddress:	
  3125                           
  3126                           ;beacon_functions.c: 139: long int curr_address = startAddress;
  3127                           
  3128                           ;incstack = 0
  3129                           ; Regs used in _PlayAddress: [wreg+fsr1l+fsr1h+status,2+status,0+pclath+cstack]
  3130  04DC  0020               	movlb	0	; select bank0
  3131  04DD  0834               	movf	PlayAddress@startAddress+3,w
  3132  04DE  00C0               	movwf	PlayAddress@curr_address+3
  3133  04DF  0833               	movf	PlayAddress@startAddress+2,w
  3134  04E0  00BF               	movwf	PlayAddress@curr_address+2
  3135  04E1  0832               	movf	PlayAddress@startAddress+1,w
  3136  04E2  00BE               	movwf	PlayAddress@curr_address+1
  3137  04E3  0831               	movf	PlayAddress@startAddress,w
  3138  04E4  00BD               	movwf	PlayAddress@curr_address
  3139                           
  3140                           ;beacon_functions.c: 141: dacOutputFlag = 1;
  3141  04E5  01FA               	clrf	_dacOutputFlag
  3142  04E6  0AFA               	incf	_dacOutputFlag,f
  3143                           
  3144                           ;beacon_functions.c: 142: ReadOverheadSPI(startAddress);
  3145  04E7  0834               	movf	PlayAddress@startAddress+3,w
  3146  04E8  00A5               	movwf	ReadOverheadSPI@address+3
  3147  04E9  0833               	movf	PlayAddress@startAddress+2,w
  3148  04EA  00A4               	movwf	ReadOverheadSPI@address+2
  3149  04EB  0832               	movf	PlayAddress@startAddress+1,w
  3150  04EC  00A3               	movwf	ReadOverheadSPI@address+1
  3151  04ED  0831               	movf	PlayAddress@startAddress,w
  3152  04EE  00A2               	movwf	ReadOverheadSPI@address
  3153  04EF  3185  2552  3184   	fcall	_ReadOverheadSPI
  3154                           
  3155                           ;beacon_functions.c: 144: while((transmitFlag || (!transmitFlag && !PORTAbits.RA4 && pla
      +                          ybackFlag)) && curr_address<=endAddress)
  3156  04F2  2D2F               	goto	l1987
  3157  04F3                     l1975:	
  3158                           
  3159                           ;beacon_functions.c: 145: {
  3160                           ;beacon_functions.c: 146: if(!((((end))==(51))?((((start))==0)?(1):(0)):((((end)+1)==((s
      +                          tart)))?(1):(0))))
  3161  04F3  3033               	movlw	51
  3162  04F4  0021               	movlb	1	; select bank1
  3163  04F5  065A               	xorwf	_end^(0+128),w
  3164  04F6  045B               	iorwf	(_end+1)^(0+128),w
  3165  04F7  1903               	skipnz
  3166  04F8  2D11               	goto	l1979
  3167  04F9  085A               	movf	_end^(0+128),w
  3168  04FA  3E01               	addlw	1
  3169  04FB  0020               	movlb	0	; select bank0
  3170  04FC  00B9               	movwf	??_PlayAddress
  3171  04FD  3000               	movlw	0
  3172  04FE  0021               	movlb	1	; select bank1
  3173  04FF  3D5B               	addwfc	(_end+1)^(0+128),w
  3174  0500  0020               	movlb	0	; select bank0
  3175  0501  00BA               	movwf	??_PlayAddress+1
  3176  0502  0879               	movf	_start+1,w
  3177  0503  063A               	xorwf	??_PlayAddress+1,w
  3178  0504  1D03               	skipz
  3179  0505  2D08               	goto	u1825
  3180  0506  0878               	movf	_start,w
  3181  0507  0639               	xorwf	??_PlayAddress,w
  3182  0508                     u1825:	
  3183  0508  3000               	movlw	0
  3184  0509  1903               	skipnz
  3185  050A  3001               	movlw	1
  3186  050B  00BB               	movwf	??_PlayAddress+2
  3187  050C  01BC               	clrf	??_PlayAddress+3
  3188  050D  083B               	movf	??_PlayAddress+2,w
  3189  050E  00C1               	movwf	_PlayAddress$633
  3190  050F  083C               	movf	??_PlayAddress+3,w
  3191  0510  2D1C               	goto	L2
  3192  0511                     l1979:	
  3193  0511  0879               	movf	_start+1,w
  3194  0512  0478               	iorwf	_start,w
  3195  0513  3000               	movlw	0
  3196  0514  1903               	skipnz
  3197  0515  3001               	movlw	1
  3198  0516  0020               	movlb	0	; select bank0
  3199  0517  00B9               	movwf	??_PlayAddress
  3200  0518  01BA               	clrf	??_PlayAddress+1
  3201  0519  0839               	movf	??_PlayAddress,w
  3202  051A  00C1               	movwf	_PlayAddress$633
  3203  051B  083A               	movf	??_PlayAddress+1,w
  3204  051C                     L2:	
  3205  051C  00C2               	movwf	_PlayAddress$633+1
  3206  051D  0842               	movf	_PlayAddress$633+1,w
  3207  051E  0441               	iorwf	_PlayAddress$633,w
  3208  051F  1D03               	skipz
  3209  0520  2D2F               	goto	l1987
  3210                           
  3211                           ;beacon_functions.c: 147: {
  3212                           ;beacon_functions.c: 149: curr_address++;
  3213  0521  3001               	movlw	1
  3214  0522  07BD               	addwf	PlayAddress@curr_address,f
  3215  0523  3000               	movlw	0
  3216  0524  3DBE               	addwfc	PlayAddress@curr_address+1,f
  3217  0525  3000               	movlw	0
  3218  0526  3DBF               	addwfc	PlayAddress@curr_address+2,f
  3219  0527  3000               	movlw	0
  3220  0528  3DC0               	addwfc	PlayAddress@curr_address+3,f
  3221                           
  3222                           ;beacon_functions.c: 150: WriteBuffer(ReadSPI());
  3223  0529  3187  272F  3184   	fcall	_ReadSPI
  3224  052C  3186  269E  3184   	fcall	_WriteBuffer
  3225  052F                     l1987:	
  3226  052F  0020               	movlb	0	; select bank0
  3227  0530  08ED               	movf	_transmitFlag,f
  3228  0531  1D03               	skipz
  3229  0532  2D3A               	goto	l1995
  3230  0533  08ED               	movf	_transmitFlag,f
  3231  0534  1903               	btfsc	3,2
  3232  0535  1A0C               	btfsc	12,4	;volatile
  3233  0536  2D4E               	goto	l130
  3234  0537  086C               	movf	_playbackFlag,w
  3235  0538  1903               	btfsc	3,2
  3236  0539  2D4E               	goto	l130
  3237  053A                     l1995:	
  3238  053A  0838               	movf	PlayAddress@endAddress+3,w
  3239  053B  3A80               	xorlw	128
  3240  053C  00B9               	movwf	??_PlayAddress
  3241  053D  0840               	movf	PlayAddress@curr_address+3,w
  3242  053E  3A80               	xorlw	128
  3243  053F  0239               	subwf	??_PlayAddress,w
  3244  0540  1D03               	skipz
  3245  0541  2D4C               	goto	u1883
  3246  0542  083F               	movf	PlayAddress@curr_address+2,w
  3247  0543  0237               	subwf	PlayAddress@endAddress+2,w
  3248  0544  1D03               	skipz
  3249  0545  2D4C               	goto	u1883
  3250  0546  083E               	movf	PlayAddress@curr_address+1,w
  3251  0547  0236               	subwf	PlayAddress@endAddress+1,w
  3252  0548  1D03               	skipz
  3253  0549  2D4C               	goto	u1883
  3254  054A  083D               	movf	PlayAddress@curr_address,w
  3255  054B  0235               	subwf	PlayAddress@endAddress,w
  3256  054C                     u1883:	
  3257  054C  1803               	skipnc
  3258  054D  2CF3               	goto	l1975
  3259  054E                     l130:	
  3260                           
  3261                           ;beacon_functions.c: 151: }
  3262                           ;beacon_functions.c: 152: }
  3263                           ;beacon_functions.c: 154: LATC2 = (1);
  3264  054E  0022               	movlb	2	; select bank2
  3265  054F  150E               	bsf	14,2	;volatile
  3266                           
  3267                           ;beacon_functions.c: 155: dacOutputFlag = 0;
  3268  0550  01FA               	clrf	_dacOutputFlag
  3269  0551  0008               	return
  3270  0552                     __end_of_PlayAddress:	
  3271                           
  3272                           	psect	text8
  3273  069E                     __ptext8:	
  3274 ;; *************** function _WriteBuffer *****************
  3275 ;; Defined at:
  3276 ;;		line 373 in file "beacon_functions.c"
  3277 ;; Parameters:    Size  Location     Type
  3278 ;;  data            1    wreg     unsigned char 
  3279 ;; Auto vars:     Size  Location     Type
  3280 ;;  data            1    4[COMMON] unsigned char 
  3281 ;; Return value:  Size  Location     Type
  3282 ;;		None               void
  3283 ;; Registers used:
  3284 ;;		wreg, fsr1l, fsr1h, status,2, status,0
  3285 ;; Tracked objects:
  3286 ;;		On entry : 0/0
  3287 ;;		On exit  : 0/0
  3288 ;;		Unchanged: 0/0
  3289 ;; Data sizes:     COMMON   BANK0   BANK1   BANK2   BANK3   BANK4   BANK5
  3290 ;;      Params:         0       0       0       0       0       0       0
  3291 ;;      Locals:         1       0       0       0       0       0       0
  3292 ;;      Temps:          1       0       0       0       0       0       0
  3293 ;;      Totals:         2       0       0       0       0       0       0
  3294 ;;Total ram usage:        2 bytes
  3295 ;; Hardware stack levels used:    1
  3296 ;; Hardware stack levels required when called:    2
  3297 ;; This function calls:
  3298 ;;		Nothing
  3299 ;; This function is called by:
  3300 ;;		_PlayAddress
  3301 ;;		_PlaybackMode
  3302 ;; This function uses a non-reentrant model
  3303 ;;
  3304                           
  3305                           
  3306                           ;psect for function _WriteBuffer
  3307  069E                     _WriteBuffer:	
  3308                           
  3309                           ;incstack = 0
  3310                           ; Regs used in _WriteBuffer: [wreg+fsr1l+fsr1h+status,2+status,0]
  3311                           ;WriteBuffer@data stored from wreg
  3312  069E  00F4               	movwf	WriteBuffer@data
  3313                           
  3314                           ;beacon_functions.c: 375: buffer[end] = data;
  3315  069F  0874               	movf	WriteBuffer@data,w
  3316  06A0  00F3               	movwf	??_WriteBuffer
  3317  06A1  0021               	movlb	1	; select bank1
  3318  06A2  085A               	movf	_end^(0+128),w
  3319  06A3  3EA0               	addlw	_buffer& (0+255)
  3320  06A4  0086               	movwf	6
  3321  06A5  0187               	clrf	7
  3322  06A6  0873               	movf	??_WriteBuffer,w
  3323  06A7  0081               	movwf	1
  3324                           
  3325                           ;beacon_functions.c: 377: if (end == 51)
  3326  06A8  3033               	movlw	51
  3327  06A9  065A               	xorwf	_end^(0+128),w
  3328  06AA  045B               	iorwf	(_end+1)^(0+128),w
  3329  06AB  1D03               	skipz
  3330  06AC  2EB0               	goto	l1405
  3331                           
  3332                           ;beacon_functions.c: 378: end = 0;
  3333  06AD  01DA               	clrf	_end^(0+128)
  3334  06AE  01DB               	clrf	(_end+1)^(0+128)
  3335  06AF  0008               	return
  3336  06B0                     l1405:	
  3337                           
  3338                           ;beacon_functions.c: 379: else
  3339                           ;beacon_functions.c: 380: end++;
  3340  06B0  3001               	movlw	1
  3341  06B1  07DA               	addwf	_end^(0+128),f
  3342  06B2  3000               	movlw	0
  3343  06B3  3DDB               	addwfc	(_end+1)^(0+128),f
  3344  06B4  0008               	return
  3345  06B5                     __end_of_WriteBuffer:	
  3346                           
  3347                           	psect	text9
  3348  0552                     __ptext9:	
  3349 ;; *************** function _ReadOverheadSPI *****************
  3350 ;; Defined at:
  3351 ;;		line 343 in file "beacon_functions.c"
  3352 ;; Parameters:    Size  Location     Type
  3353 ;;  address         4    2[BANK0 ] long 
  3354 ;; Auto vars:     Size  Location     Type
  3355 ;;  addressBytes    3   14[BANK0 ] unsigned char [3]
  3356 ;;  StatusReg       2   12[BANK0 ] int 
  3357 ;; Return value:  Size  Location     Type
  3358 ;;		None               void
  3359 ;; Registers used:
  3360 ;;		wreg, status,2, status,0, pclath, cstack
  3361 ;; Tracked objects:
  3362 ;;		On entry : 0/0
  3363 ;;		On exit  : 0/0
  3364 ;;		Unchanged: 0/0
  3365 ;; Data sizes:     COMMON   BANK0   BANK1   BANK2   BANK3   BANK4   BANK5
  3366 ;;      Params:         0       4       0       0       0       0       0
  3367 ;;      Locals:         0       5       0       0       0       0       0
  3368 ;;      Temps:          0       6       0       0       0       0       0
  3369 ;;      Totals:         0      15       0       0       0       0       0
  3370 ;;Total ram usage:       15 bytes
  3371 ;; Hardware stack levels used:    1
  3372 ;; Hardware stack levels required when called:    4
  3373 ;; This function calls:
  3374 ;;		_ReadStatusSPI
  3375 ;;		_WriteSPI
  3376 ;; This function is called by:
  3377 ;;		_PlayAddress
  3378 ;;		_PlaybackMode
  3379 ;; This function uses a non-reentrant model
  3380 ;;
  3381                           
  3382                           
  3383                           ;psect for function _ReadOverheadSPI
  3384  0552                     _ReadOverheadSPI:	
  3385                           
  3386                           ;beacon_functions.c: 345: unsigned char addressBytes[3];
  3387                           ;beacon_functions.c: 346: addressBytes[0]=(unsigned char)(address>>16);
  3388                           
  3389                           ;incstack = 0
  3390                           ; Regs used in _ReadOverheadSPI: [wreg+status,2+status,0+pclath+cstack]
  3391  0552  0020               	movlb	0	; select bank0
  3392  0553  0822               	movf	ReadOverheadSPI@address,w
  3393  0554  00A6               	movwf	??_ReadOverheadSPI
  3394  0555  0823               	movf	ReadOverheadSPI@address+1,w
  3395  0556  00A7               	movwf	??_ReadOverheadSPI+1
  3396  0557  0824               	movf	ReadOverheadSPI@address+2,w
  3397  0558  00A8               	movwf	??_ReadOverheadSPI+2
  3398  0559  0825               	movf	ReadOverheadSPI@address+3,w
  3399  055A  00A9               	movwf	??_ReadOverheadSPI+3
  3400  055B  3010               	movlw	16
  3401  055C  00AA               	movwf	??_ReadOverheadSPI+4
  3402  055D                     u1755:	
  3403  055D  37A9               	asrf	??_ReadOverheadSPI+3,f
  3404  055E  0CA8               	rrf	??_ReadOverheadSPI+2,f
  3405  055F  0CA7               	rrf	??_ReadOverheadSPI+1,f
  3406  0560  0CA6               	rrf	??_ReadOverheadSPI,f
  3407  0561  0BAA               	decfsz	??_ReadOverheadSPI+4,f
  3408  0562  2D5D               	goto	u1755
  3409  0563  0826               	movf	??_ReadOverheadSPI,w
  3410  0564  00AB               	movwf	??_ReadOverheadSPI+5
  3411  0565  082B               	movf	??_ReadOverheadSPI+5,w
  3412  0566  00AE               	movwf	ReadOverheadSPI@addressBytes
  3413                           
  3414                           ;beacon_functions.c: 347: addressBytes[1]=(unsigned char)(address>>8);
  3415  0567  0822               	movf	ReadOverheadSPI@address,w
  3416  0568  00A6               	movwf	??_ReadOverheadSPI
  3417  0569  0823               	movf	ReadOverheadSPI@address+1,w
  3418  056A  00A7               	movwf	??_ReadOverheadSPI+1
  3419  056B  0824               	movf	ReadOverheadSPI@address+2,w
  3420  056C  00A8               	movwf	??_ReadOverheadSPI+2
  3421  056D  0825               	movf	ReadOverheadSPI@address+3,w
  3422  056E  00A9               	movwf	??_ReadOverheadSPI+3
  3423  056F  3008               	movlw	8
  3424  0570  00AA               	movwf	??_ReadOverheadSPI+4
  3425  0571                     u1765:	
  3426  0571  37A9               	asrf	??_ReadOverheadSPI+3,f
  3427  0572  0CA8               	rrf	??_ReadOverheadSPI+2,f
  3428  0573  0CA7               	rrf	??_ReadOverheadSPI+1,f
  3429  0574  0CA6               	rrf	??_ReadOverheadSPI,f
  3430  0575  0BAA               	decfsz	??_ReadOverheadSPI+4,f
  3431  0576  2D71               	goto	u1765
  3432  0577  0826               	movf	??_ReadOverheadSPI,w
  3433  0578  00AB               	movwf	??_ReadOverheadSPI+5
  3434  0579  082B               	movf	??_ReadOverheadSPI+5,w
  3435  057A  00AF               	movwf	ReadOverheadSPI@addressBytes+1
  3436                           
  3437                           ;beacon_functions.c: 348: addressBytes[2]=(unsigned char)(address);
  3438  057B  0822               	movf	ReadOverheadSPI@address,w
  3439  057C  00A6               	movwf	??_ReadOverheadSPI
  3440  057D  0826               	movf	??_ReadOverheadSPI,w
  3441  057E  00B0               	movwf	ReadOverheadSPI@addressBytes+2
  3442                           
  3443                           ;beacon_functions.c: 351: int StatusReg;
  3444                           ;beacon_functions.c: 353: if(PORTAbits.RA4)
  3445  057F  1A0C               	btfsc	12,4	;volatile
  3446  0580  0008               	return
  3447  0581  2D84               	goto	l1957
  3448  0582                     l1961:	
  3449                           ;beacon_functions.c: 354: return;
  3450                           
  3451  0582  1A0C               	btfsc	12,4	;volatile
  3452  0583  2D93               	goto	l177
  3453  0584                     l1957:	
  3454                           ;beacon_functions.c: 355: do
  3455                           
  3456                           
  3457                           ;beacon_functions.c: 356: {
  3458                           ;beacon_functions.c: 357: StatusReg = (ReadStatusSPI() & 0x01);
  3459  0584  3187  2702  3185   	fcall	_ReadStatusSPI
  3460  0587  3901               	andlw	1
  3461  0588  0020               	movlb	0	; select bank0
  3462  0589  00A6               	movwf	??_ReadOverheadSPI
  3463  058A  01A7               	clrf	??_ReadOverheadSPI+1
  3464  058B  0826               	movf	??_ReadOverheadSPI,w
  3465  058C  00AC               	movwf	ReadOverheadSPI@StatusReg
  3466  058D  0827               	movf	??_ReadOverheadSPI+1,w
  3467  058E  00AD               	movwf	ReadOverheadSPI@StatusReg+1
  3468                           
  3469                           ;beacon_functions.c: 358: } while (StatusReg&&!PORTAbits.RA4);
  3470  058F  082D               	movf	ReadOverheadSPI@StatusReg+1,w
  3471  0590  042C               	iorwf	ReadOverheadSPI@StatusReg,w
  3472  0591  1D03               	btfss	3,2
  3473  0592  2D82               	goto	l1961
  3474  0593                     l177:	
  3475                           
  3476                           ;beacon_functions.c: 359: if(PORTAbits.RA4)
  3477  0593  1A0C               	btfsc	12,4	;volatile
  3478  0594  0008               	return
  3479                           
  3480                           ;beacon_functions.c: 363: LATC2 = (0);
  3481                           
  3482                           ;beacon_functions.c: 360: return;
  3483  0595  0022               	movlb	2	; select bank2
  3484  0596  110E               	bcf	14,2	;volatile
  3485                           
  3486                           ;beacon_functions.c: 364: WriteSPI((0x03));
  3487  0597  3003               	movlw	3
  3488  0598  3186  26F0  3185   	fcall	_WriteSPI
  3489                           
  3490                           ;beacon_functions.c: 365: WriteSPI(addressBytes[0]);
  3491  059B  0020               	movlb	0	; select bank0
  3492  059C  082E               	movf	ReadOverheadSPI@addressBytes,w
  3493  059D  3186  26F0  3185   	fcall	_WriteSPI
  3494                           
  3495                           ;beacon_functions.c: 366: WriteSPI(addressBytes[1]);
  3496  05A0  0020               	movlb	0	; select bank0
  3497  05A1  082F               	movf	ReadOverheadSPI@addressBytes+1,w
  3498  05A2  3186  26F0  3185   	fcall	_WriteSPI
  3499                           
  3500                           ;beacon_functions.c: 367: WriteSPI(addressBytes[2]);
  3501  05A5  0020               	movlb	0	; select bank0
  3502  05A6  0830               	movf	ReadOverheadSPI@addressBytes+2,w
  3503  05A7  3186  26F0         	fcall	_WriteSPI
  3504  05A9  0008               	return
  3505  05AA                     __end_of_ReadOverheadSPI:	
  3506                           ;beacon_functions.c: 369: return;
  3507                           
  3508                           
  3509                           	psect	text10
  3510  0702                     __ptext10:	
  3511 ;; *************** function _ReadStatusSPI *****************
  3512 ;; Defined at:
  3513 ;;		line 331 in file "beacon_functions.c"
  3514 ;; Parameters:    Size  Location     Type
  3515 ;;		None
  3516 ;; Auto vars:     Size  Location     Type
  3517 ;;  dataRead        1    1[BANK0 ] unsigned char 
  3518 ;; Return value:  Size  Location     Type
  3519 ;;                  1    wreg      unsigned char 
  3520 ;; Registers used:
  3521 ;;		wreg, status,2, status,0, pclath, cstack
  3522 ;; Tracked objects:
  3523 ;;		On entry : 0/0
  3524 ;;		On exit  : 0/0
  3525 ;;		Unchanged: 0/0
  3526 ;; Data sizes:     COMMON   BANK0   BANK1   BANK2   BANK3   BANK4   BANK5
  3527 ;;      Params:         0       0       0       0       0       0       0
  3528 ;;      Locals:         0       1       0       0       0       0       0
  3529 ;;      Temps:          0       1       0       0       0       0       0
  3530 ;;      Totals:         0       2       0       0       0       0       0
  3531 ;;Total ram usage:        2 bytes
  3532 ;; Hardware stack levels used:    1
  3533 ;; Hardware stack levels required when called:    3
  3534 ;; This function calls:
  3535 ;;		_ReadSPI
  3536 ;;		_WriteSPI
  3537 ;; This function is called by:
  3538 ;;		_ReadOverheadSPI
  3539 ;;		_WriteSPI_overhead
  3540 ;; This function uses a non-reentrant model
  3541 ;;
  3542                           
  3543                           
  3544                           ;psect for function _ReadStatusSPI
  3545  0702                     _ReadStatusSPI:	
  3546                           
  3547                           ;beacon_functions.c: 333: unsigned char dataRead;
  3548                           ;beacon_functions.c: 335: LATC2 = (0);
  3549                           
  3550                           ;incstack = 0
  3551                           ; Regs used in _ReadStatusSPI: [wreg+status,2+status,0+pclath+cstack]
  3552  0702  0022               	movlb	2	; select bank2
  3553  0703  110E               	bcf	14,2	;volatile
  3554                           
  3555                           ;beacon_functions.c: 336: WriteSPI((0x05));
  3556  0704  3005               	movlw	5
  3557  0705  3186  26F0  3187   	fcall	_WriteSPI
  3558                           
  3559                           ;beacon_functions.c: 337: dataRead = ReadSPI();
  3560  0708  3187  272F         	fcall	_ReadSPI
  3561  070A  0020               	movlb	0	; select bank0
  3562  070B  00A0               	movwf	??_ReadStatusSPI
  3563  070C  0820               	movf	??_ReadStatusSPI,w
  3564  070D  00A1               	movwf	ReadStatusSPI@dataRead
  3565                           
  3566                           ;beacon_functions.c: 338: LATC2 = (1);
  3567  070E  0022               	movlb	2	; select bank2
  3568  070F  150E               	bsf	14,2	;volatile
  3569                           
  3570                           ;beacon_functions.c: 340: return(dataRead);
  3571  0710  0020               	movlb	0	; select bank0
  3572  0711  0821               	movf	ReadStatusSPI@dataRead,w
  3573  0712  0008               	return
  3574  0713                     __end_of_ReadStatusSPI:	
  3575                           
  3576                           	psect	text11
  3577  06F0                     __ptext11:	
  3578 ;; *************** function _WriteSPI *****************
  3579 ;; Defined at:
  3580 ;;		line 218 in file "beacon_functions.c"
  3581 ;; Parameters:    Size  Location     Type
  3582 ;;  databyte        1    wreg     unsigned char 
  3583 ;; Auto vars:     Size  Location     Type
  3584 ;;  databyte        1    7[COMMON] unsigned char 
  3585 ;;  buffer          2    5[COMMON] unsigned int 
  3586 ;; Return value:  Size  Location     Type
  3587 ;;		None               void
  3588 ;; Registers used:
  3589 ;;		wreg
  3590 ;; Tracked objects:
  3591 ;;		On entry : 0/0
  3592 ;;		On exit  : 0/0
  3593 ;;		Unchanged: 0/0
  3594 ;; Data sizes:     COMMON   BANK0   BANK1   BANK2   BANK3   BANK4   BANK5
  3595 ;;      Params:         0       0       0       0       0       0       0
  3596 ;;      Locals:         3       0       0       0       0       0       0
  3597 ;;      Temps:          2       0       0       0       0       0       0
  3598 ;;      Totals:         5       0       0       0       0       0       0
  3599 ;;Total ram usage:        5 bytes
  3600 ;; Hardware stack levels used:    1
  3601 ;; Hardware stack levels required when called:    2
  3602 ;; This function calls:
  3603 ;;		Nothing
  3604 ;; This function is called by:
  3605 ;;		_ReadStatusSPI
  3606 ;;		_ReadOverheadSPI
  3607 ;;		_WriteSPI_overhead
  3608 ;; This function uses a non-reentrant model
  3609 ;;
  3610                           
  3611                           
  3612                           ;psect for function _WriteSPI
  3613  06F0                     _WriteSPI:	
  3614                           
  3615                           ;incstack = 0
  3616                           ; Regs used in _WriteSPI: [wreg]
  3617                           ;WriteSPI@databyte stored from wreg
  3618  06F0  00F7               	movwf	WriteSPI@databyte
  3619                           
  3620                           ;beacon_functions.c: 220: unsigned int buffer;
  3621                           ;beacon_functions.c: 221: buffer = SSPBUF;
  3622  06F1  0024               	movlb	4	; select bank4
  3623  06F2  0811               	movf	17,w	;volatile
  3624  06F3  00F3               	movwf	??_WriteSPI
  3625  06F4  01F4               	clrf	??_WriteSPI+1
  3626  06F5  0873               	movf	??_WriteSPI,w
  3627  06F6  00F5               	movwf	WriteSPI@buffer
  3628  06F7  0874               	movf	??_WriteSPI+1,w
  3629  06F8  00F6               	movwf	WriteSPI@buffer+1
  3630                           
  3631                           ;beacon_functions.c: 222: PIR1bits.SSP1IF=0;
  3632  06F9  0020               	movlb	0	; select bank0
  3633  06FA  1191               	bcf	17,3	;volatile
  3634                           
  3635                           ;beacon_functions.c: 223: SSPBUF = databyte;
  3636  06FB  0877               	movf	WriteSPI@databyte,w
  3637  06FC  0024               	movlb	4	; select bank4
  3638  06FD  0091               	movwf	17	;volatile
  3639  06FE                     l157:	
  3640                           ;beacon_functions.c: 224: while(!PIR1bits.SSP1IF);
  3641                           
  3642  06FE  0020               	movlb	0	; select bank0
  3643  06FF  1991               	btfsc	17,3	;volatile
  3644  0700  0008               	return
  3645  0701  2EFE               	goto	l157
  3646  0702                     __end_of_WriteSPI:	
  3647                           
  3648                           	psect	text12
  3649  072F                     __ptext12:	
  3650 ;; *************** function _ReadSPI *****************
  3651 ;; Defined at:
  3652 ;;		line 227 in file "beacon_functions.c"
  3653 ;; Parameters:    Size  Location     Type
  3654 ;;		None
  3655 ;; Auto vars:     Size  Location     Type
  3656 ;;  dataByte        1    4[COMMON] unsigned char 
  3657 ;; Return value:  Size  Location     Type
  3658 ;;                  1    wreg      unsigned char 
  3659 ;; Registers used:
  3660 ;;		wreg, status,2
  3661 ;; Tracked objects:
  3662 ;;		On entry : 0/0
  3663 ;;		On exit  : 0/0
  3664 ;;		Unchanged: 0/0
  3665 ;; Data sizes:     COMMON   BANK0   BANK1   BANK2   BANK3   BANK4   BANK5
  3666 ;;      Params:         0       0       0       0       0       0       0
  3667 ;;      Locals:         1       0       0       0       0       0       0
  3668 ;;      Temps:          1       0       0       0       0       0       0
  3669 ;;      Totals:         2       0       0       0       0       0       0
  3670 ;;Total ram usage:        2 bytes
  3671 ;; Hardware stack levels used:    1
  3672 ;; Hardware stack levels required when called:    2
  3673 ;; This function calls:
  3674 ;;		Nothing
  3675 ;; This function is called by:
  3676 ;;		_PlayAddress
  3677 ;;		_PlaybackMode
  3678 ;;		_ReadStatusSPI
  3679 ;; This function uses a non-reentrant model
  3680 ;;
  3681                           
  3682                           
  3683                           ;psect for function _ReadSPI
  3684  072F                     _ReadSPI:	
  3685                           
  3686                           ;beacon_functions.c: 229: unsigned char dataByte;
  3687                           ;beacon_functions.c: 230: SSPBUF = 0x00;
  3688                           
  3689                           ;incstack = 0
  3690                           ; Regs used in _ReadSPI: [wreg+status,2]
  3691  072F  0024               	movlb	4	; select bank4
  3692  0730  0191               	clrf	17	;volatile
  3693  0731                     l163:	
  3694                           ;beacon_functions.c: 231: while(!SSPSTATbits.BF);
  3695                           
  3696  0731  1C14               	btfss	20,0	;volatile
  3697  0732  2F31               	goto	l163
  3698                           
  3699                           ;beacon_functions.c: 232: dataByte = SSPBUF;
  3700  0733  0811               	movf	17,w	;volatile
  3701  0734  00F3               	movwf	??_ReadSPI
  3702  0735  0873               	movf	??_ReadSPI,w
  3703  0736  00F4               	movwf	ReadSPI@dataByte
  3704                           
  3705                           ;beacon_functions.c: 233: PIR1bits.SSP1IF=0;
  3706  0737  0020               	movlb	0	; select bank0
  3707  0738  1191               	bcf	17,3	;volatile
  3708                           
  3709                           ;beacon_functions.c: 234: return (dataByte);
  3710  0739  0874               	movf	ReadSPI@dataByte,w
  3711  073A  0008               	return
  3712  073B                     __end_of_ReadSPI:	
  3713                           
  3714                           	psect	text13
  3715  074A                     __ptext13:	
  3716 ;; *************** function _InitWatchdog *****************
  3717 ;; Defined at:
  3718 ;;		line 108 in file "beacon_functions.c"
  3719 ;; Parameters:    Size  Location     Type
  3720 ;;		None
  3721 ;; Auto vars:     Size  Location     Type
  3722 ;;		None
  3723 ;; Return value:  Size  Location     Type
  3724 ;;		None               void
  3725 ;; Registers used:
  3726 ;;		wreg, status,2, status,0
  3727 ;; Tracked objects:
  3728 ;;		On entry : 0/0
  3729 ;;		On exit  : 0/0
  3730 ;;		Unchanged: 0/0
  3731 ;; Data sizes:     COMMON   BANK0   BANK1   BANK2   BANK3   BANK4   BANK5
  3732 ;;      Params:         0       0       0       0       0       0       0
  3733 ;;      Locals:         0       0       0       0       0       0       0
  3734 ;;      Temps:          0       0       0       0       0       0       0
  3735 ;;      Totals:         0       0       0       0       0       0       0
  3736 ;;Total ram usage:        0 bytes
  3737 ;; Hardware stack levels used:    1
  3738 ;; Hardware stack levels required when called:    2
  3739 ;; This function calls:
  3740 ;;		Nothing
  3741 ;; This function is called by:
  3742 ;;		_main
  3743 ;; This function uses a non-reentrant model
  3744 ;;
  3745                           
  3746                           
  3747                           ;psect for function _InitWatchdog
  3748  074A                     _InitWatchdog:	
  3749                           
  3750                           ;beacon_functions.c: 111: WDTCONbits.WDTPS = 13;
  3751                           
  3752                           ;incstack = 0
  3753                           ; Regs used in _InitWatchdog: [wreg+status,2+status,0]
  3754  074A  0021               	movlb	1	; select bank1
  3755  074B  0817               	movf	23,w	;volatile
  3756  074C  39C1               	andlw	-63
  3757  074D  381A               	iorlw	26
  3758  074E  0097               	movwf	23	;volatile
  3759                           
  3760                           ;beacon_functions.c: 112: WDTCONbits.SWDTEN = 0;
  3761  074F  1017               	bcf	23,0	;volatile
  3762  0750  0008               	return
  3763  0751                     __end_of_InitWatchdog:	
  3764                           
  3765                           	psect	text14
  3766  0722                     __ptext14:	
  3767 ;; *************** function _InitTimer0 *****************
  3768 ;; Defined at:
  3769 ;;		line 93 in file "beacon_functions.c"
  3770 ;; Parameters:    Size  Location     Type
  3771 ;;		None
  3772 ;; Auto vars:     Size  Location     Type
  3773 ;;		None
  3774 ;; Return value:  Size  Location     Type
  3775 ;;		None               void
  3776 ;; Registers used:
  3777 ;;		wreg
  3778 ;; Tracked objects:
  3779 ;;		On entry : 0/0
  3780 ;;		On exit  : 0/0
  3781 ;;		Unchanged: 0/0
  3782 ;; Data sizes:     COMMON   BANK0   BANK1   BANK2   BANK3   BANK4   BANK5
  3783 ;;      Params:         0       0       0       0       0       0       0
  3784 ;;      Locals:         0       0       0       0       0       0       0
  3785 ;;      Temps:          0       0       0       0       0       0       0
  3786 ;;      Totals:         0       0       0       0       0       0       0
  3787 ;;Total ram usage:        0 bytes
  3788 ;; Hardware stack levels used:    1
  3789 ;; Hardware stack levels required when called:    2
  3790 ;; This function calls:
  3791 ;;		Nothing
  3792 ;; This function is called by:
  3793 ;;		_main
  3794 ;; This function uses a non-reentrant model
  3795 ;;
  3796                           
  3797                           
  3798                           ;psect for function _InitTimer0
  3799  0722                     _InitTimer0:	
  3800                           
  3801                           ;beacon_functions.c: 97: TMR0IE = 0;
  3802                           
  3803                           ;incstack = 0
  3804                           ; Regs used in _InitTimer0: [wreg]
  3805  0722  128B               	bcf	11,5	;volatile
  3806                           
  3807                           ;beacon_functions.c: 98: TMR0IF = 0;
  3808  0723  110B               	bcf	11,2	;volatile
  3809                           
  3810                           ;beacon_functions.c: 99: TMR0CS = 0;
  3811  0724  0021               	movlb	1	; select bank1
  3812  0725  1295               	bcf	21,5	;volatile
  3813                           
  3814                           ;beacon_functions.c: 100: PSA = 0;
  3815  0726  1195               	bcf	21,3	;volatile
  3816                           
  3817                           ;beacon_functions.c: 101: PS0 = 1;
  3818  0727  1415               	bsf	21,0	;volatile
  3819                           
  3820                           ;beacon_functions.c: 102: PS1 = 0;
  3821  0728  1095               	bcf	21,1	;volatile
  3822                           
  3823                           ;beacon_functions.c: 103: PS2 = 0;
  3824  0729  1115               	bcf	21,2	;volatile
  3825                           
  3826                           ;beacon_functions.c: 104: TMR0 = (0x71);
  3827  072A  3071               	movlw	113
  3828  072B  0020               	movlb	0	; select bank0
  3829  072C  0095               	movwf	21	;volatile
  3830                           
  3831                           ;beacon_functions.c: 105: TMR0IE = 1;
  3832  072D  168B               	bsf	11,5	;volatile
  3833  072E  0008               	return
  3834  072F                     __end_of_InitTimer0:	
  3835                           
  3836                           	psect	text15
  3837  067C                     __ptext15:	
  3838 ;; *************** function _InitGPIO *****************
  3839 ;; Defined at:
  3840 ;;		line 9 in file "beacon_functions.c"
  3841 ;; Parameters:    Size  Location     Type
  3842 ;;		None
  3843 ;; Auto vars:     Size  Location     Type
  3844 ;;		None
  3845 ;; Return value:  Size  Location     Type
  3846 ;;		None               void
  3847 ;; Registers used:
  3848 ;;		status,2
  3849 ;; Tracked objects:
  3850 ;;		On entry : 0/0
  3851 ;;		On exit  : 0/0
  3852 ;;		Unchanged: 0/0
  3853 ;; Data sizes:     COMMON   BANK0   BANK1   BANK2   BANK3   BANK4   BANK5
  3854 ;;      Params:         0       0       0       0       0       0       0
  3855 ;;      Locals:         0       0       0       0       0       0       0
  3856 ;;      Temps:          0       0       0       0       0       0       0
  3857 ;;      Totals:         0       0       0       0       0       0       0
  3858 ;;Total ram usage:        0 bytes
  3859 ;; Hardware stack levels used:    1
  3860 ;; Hardware stack levels required when called:    2
  3861 ;; This function calls:
  3862 ;;		Nothing
  3863 ;; This function is called by:
  3864 ;;		_main
  3865 ;; This function uses a non-reentrant model
  3866 ;;
  3867                           
  3868                           
  3869                           ;psect for function _InitGPIO
  3870  067C                     _InitGPIO:	
  3871                           
  3872                           ;beacon_functions.c: 14: TRISAbits.TRISA3 = 1;
  3873                           
  3874                           ;incstack = 0
  3875                           ; Regs used in _InitGPIO: [status,2]
  3876  067C  0021               	movlb	1	; select bank1
  3877  067D  158C               	bsf	12,3	;volatile
  3878                           
  3879                           ;beacon_functions.c: 15: ANSELAbits.ANSA3 = 0;
  3880  067E  0023               	movlb	3	; select bank3
  3881  067F  118C               	bcf	12,3	;volatile
  3882                           
  3883                           ;beacon_functions.c: 16: IOCAPbits.IOCAP3 = 1;
  3884  0680  0027               	movlb	7	; select bank7
  3885  0681  1591               	bsf	17,3	;volatile
  3886                           
  3887                           ;beacon_functions.c: 17: IOCANbits.IOCAN3 = 1;
  3888  0682  1592               	bsf	18,3	;volatile
  3889                           
  3890                           ;beacon_functions.c: 18: IOCAF = 0x00;
  3891  0683  0193               	clrf	19	;volatile
  3892                           
  3893                           ;beacon_functions.c: 19: INTCONbits.IOCIE = 1;
  3894  0684  158B               	bsf	11,3	;volatile
  3895                           
  3896                           ;beacon_functions.c: 22: TRISAbits.TRISA0 = 0;
  3897  0685  0021               	movlb	1	; select bank1
  3898  0686  100C               	bcf	12,0	;volatile
  3899                           
  3900                           ;beacon_functions.c: 24: TRISAbits.TRISA2 = 0;
  3901  0687  110C               	bcf	12,2	;volatile
  3902                           
  3903                           ;beacon_functions.c: 26: TRISAbits.TRISA4 = 1;
  3904  0688  160C               	bsf	12,4	;volatile
  3905                           
  3906                           ;beacon_functions.c: 27: ANSELAbits.ANSA4 = 0;
  3907  0689  0023               	movlb	3	; select bank3
  3908  068A  120C               	bcf	12,4	;volatile
  3909                           
  3910                           ;beacon_functions.c: 29: TRISAbits.TRISA6 = 0;
  3911  068B  0021               	movlb	1	; select bank1
  3912  068C  130C               	bcf	12,6	;volatile
  3913                           
  3914                           ;beacon_functions.c: 30: TRISAbits.TRISA7 = 0;
  3915  068D  138C               	bcf	12,7	;volatile
  3916                           
  3917                           ;beacon_functions.c: 33: TRISBbits.TRISB0 = 1;
  3918  068E  140D               	bsf	13,0	;volatile
  3919                           
  3920                           ;beacon_functions.c: 34: TRISBbits.TRISB1 = 1;
  3921  068F  148D               	bsf	13,1	;volatile
  3922                           
  3923                           ;beacon_functions.c: 35: TRISBbits.TRISB2 = 1;
  3924  0690  150D               	bsf	13,2	;volatile
  3925                           
  3926                           ;beacon_functions.c: 36: TRISBbits.TRISB3 = 0;
  3927  0691  118D               	bcf	13,3	;volatile
  3928                           
  3929                           ;beacon_functions.c: 37: TRISBbits.TRISB4 = 0;
  3930  0692  120D               	bcf	13,4	;volatile
  3931                           
  3932                           ;beacon_functions.c: 38: TRISBbits.TRISB5 = 0;
  3933  0693  128D               	bcf	13,5	;volatile
  3934                           
  3935                           ;beacon_functions.c: 39: PORTBbits.RB5 = 0;
  3936  0694  0020               	movlb	0	; select bank0
  3937  0695  128D               	bcf	13,5	;volatile
  3938                           
  3939                           ;beacon_functions.c: 42: TRISCbits.TRISC0 = 0;
  3940  0696  0021               	movlb	1	; select bank1
  3941  0697  100E               	bcf	14,0	;volatile
  3942                           
  3943                           ;beacon_functions.c: 43: TRISCbits.TRISC1 = 1;
  3944  0698  148E               	bsf	14,1	;volatile
  3945                           
  3946                           ;beacon_functions.c: 48: TRISCbits.TRISC6 = 0;
  3947  0699  130E               	bcf	14,6	;volatile
  3948                           
  3949                           ;beacon_functions.c: 49: TRISCbits.TRISC7 = 0;
  3950  069A  138E               	bcf	14,7	;volatile
  3951                           
  3952                           ;beacon_functions.c: 50: PORTCbits.RC0 = 0;
  3953  069B  0020               	movlb	0	; select bank0
  3954  069C  100E               	bcf	14,0	;volatile
  3955  069D  0008               	return
  3956  069E                     __end_of_InitGPIO:	
  3957                           
  3958                           	psect	text16
  3959  06CB                     __ptext16:	
  3960 ;; *************** function _InitDAC *****************
  3961 ;; Defined at:
  3962 ;;		line 53 in file "beacon_functions.c"
  3963 ;; Parameters:    Size  Location     Type
  3964 ;;		None
  3965 ;; Auto vars:     Size  Location     Type
  3966 ;;		None
  3967 ;; Return value:  Size  Location     Type
  3968 ;;		None               void
  3969 ;; Registers used:
  3970 ;;		wreg, status,2, status,0
  3971 ;; Tracked objects:
  3972 ;;		On entry : 0/0
  3973 ;;		On exit  : 0/0
  3974 ;;		Unchanged: 0/0
  3975 ;; Data sizes:     COMMON   BANK0   BANK1   BANK2   BANK3   BANK4   BANK5
  3976 ;;      Params:         0       0       0       0       0       0       0
  3977 ;;      Locals:         0       0       0       0       0       0       0
  3978 ;;      Temps:          0       0       0       0       0       0       0
  3979 ;;      Totals:         0       0       0       0       0       0       0
  3980 ;;Total ram usage:        0 bytes
  3981 ;; Hardware stack levels used:    1
  3982 ;; Hardware stack levels required when called:    2
  3983 ;; This function calls:
  3984 ;;		Nothing
  3985 ;; This function is called by:
  3986 ;;		_main
  3987 ;; This function uses a non-reentrant model
  3988 ;;
  3989                           
  3990                           
  3991                           ;psect for function _InitDAC
  3992  06CB                     _InitDAC:	
  3993                           
  3994                           ;beacon_functions.c: 55: TRISAbits.TRISA5 = 1;
  3995                           
  3996                           ;incstack = 0
  3997                           ; Regs used in _InitDAC: [wreg+status,2+status,0]
  3998  06CB  0021               	movlb	1	; select bank1
  3999  06CC  168C               	bsf	12,5	;volatile
  4000                           
  4001                           ;beacon_functions.c: 56: TRISAbits.TRISA1 = 0;
  4002  06CD  108C               	bcf	12,1	;volatile
  4003                           
  4004                           ;beacon_functions.c: 57: OPA1CONbits.OPA1CH = 0x2;
  4005  06CE  002A               	movlb	10	; select bank10
  4006  06CF  0811               	movf	17,w	;volatile
  4007  06D0  39FC               	andlw	-4
  4008  06D1  3802               	iorlw	2
  4009  06D2  0091               	movwf	17	;volatile
  4010                           
  4011                           ;beacon_functions.c: 58: OPA1CONbits.OPA1SP = 1;
  4012  06D3  1711               	bsf	17,6	;volatile
  4013                           
  4014                           ;beacon_functions.c: 59: OPA1CONbits.OPA1EN = 1;
  4015  06D4  1791               	bsf	17,7	;volatile
  4016                           
  4017                           ;beacon_functions.c: 62: DACCON0bits.DACOE1 = 0;
  4018  06D5  0022               	movlb	2	; select bank2
  4019  06D6  1298               	bcf	24,5	;volatile
  4020                           
  4021                           ;beacon_functions.c: 63: DACCON0bits.DACOE2 = 0;
  4022  06D7  1218               	bcf	24,4	;volatile
  4023                           
  4024                           ;beacon_functions.c: 64: DACCON0bits.DACPSS = 0x0;
  4025  06D8  30F3               	movlw	-13
  4026  06D9  0598               	andwf	24,f	;volatile
  4027                           
  4028                           ;beacon_functions.c: 65: DACCON0bits.DACNSS = 0;
  4029  06DA  1018               	bcf	24,0	;volatile
  4030                           
  4031                           ;beacon_functions.c: 66: DACCON0bits.DACEN = 1;
  4032  06DB  1798               	bsf	24,7	;volatile
  4033                           
  4034                           ;beacon_functions.c: 67: DACCON1 = 0x00;
  4035  06DC  0199               	clrf	25	;volatile
  4036  06DD  0008               	return
  4037  06DE                     __end_of_InitDAC:	
  4038                           
  4039                           	psect	text17
  4040  073B                     __ptext17:	
  4041 ;; *************** function _InitCLK *****************
  4042 ;; Defined at:
  4043 ;;		line 4 in file "beacon_functions.c"
  4044 ;; Parameters:    Size  Location     Type
  4045 ;;		None
  4046 ;; Auto vars:     Size  Location     Type
  4047 ;;		None
  4048 ;; Return value:  Size  Location     Type
  4049 ;;		None               void
  4050 ;; Registers used:
  4051 ;;		wreg, status,2, status,0
  4052 ;; Tracked objects:
  4053 ;;		On entry : 0/0
  4054 ;;		On exit  : 0/0
  4055 ;;		Unchanged: 0/0
  4056 ;; Data sizes:     COMMON   BANK0   BANK1   BANK2   BANK3   BANK4   BANK5
  4057 ;;      Params:         0       0       0       0       0       0       0
  4058 ;;      Locals:         0       0       0       0       0       0       0
  4059 ;;      Temps:          0       0       0       0       0       0       0
  4060 ;;      Totals:         0       0       0       0       0       0       0
  4061 ;;Total ram usage:        0 bytes
  4062 ;; Hardware stack levels used:    1
  4063 ;; Hardware stack levels required when called:    2
  4064 ;; This function calls:
  4065 ;;		Nothing
  4066 ;; This function is called by:
  4067 ;;		_main
  4068 ;; This function uses a non-reentrant model
  4069 ;;
  4070                           
  4071                           
  4072                           ;psect for function _InitCLK
  4073  073B                     _InitCLK:	
  4074                           
  4075                           ;beacon_functions.c: 6: OSCCONbits.IRCF = 0xF;
  4076                           
  4077                           ;incstack = 0
  4078                           ; Regs used in _InitCLK: [wreg+status,2+status,0]
  4079  073B  3078               	movlw	120
  4080  073C  0021               	movlb	1	; select bank1
  4081  073D  0499               	iorwf	25,f	;volatile
  4082                           
  4083                           ;beacon_functions.c: 7: OSCCONbits.SCS = 2;
  4084  073E  0819               	movf	25,w	;volatile
  4085  073F  39FC               	andlw	-4
  4086  0740  3802               	iorlw	2
  4087  0741  0099               	movwf	25	;volatile
  4088  0742  0008               	return
  4089  0743                     __end_of_InitCLK:	
  4090                           
  4091                           	psect	text18
  4092  0713                     __ptext18:	
  4093 ;; *************** function _CheckDisconnect *****************
  4094 ;; Defined at:
  4095 ;;		line 116 in file "beacon_functions.c"
  4096 ;; Parameters:    Size  Location     Type
  4097 ;;		None
  4098 ;; Auto vars:     Size  Location     Type
  4099 ;;		None
  4100 ;; Return value:  Size  Location     Type
  4101 ;;		None               void
  4102 ;; Registers used:
  4103 ;;		wreg, status,2
  4104 ;; Tracked objects:
  4105 ;;		On entry : 0/0
  4106 ;;		On exit  : 0/0
  4107 ;;		Unchanged: 0/0
  4108 ;; Data sizes:     COMMON   BANK0   BANK1   BANK2   BANK3   BANK4   BANK5
  4109 ;;      Params:         0       0       0       0       0       0       0
  4110 ;;      Locals:         0       0       0       0       0       0       0
  4111 ;;      Temps:          1       0       0       0       0       0       0
  4112 ;;      Totals:         1       0       0       0       0       0       0
  4113 ;;Total ram usage:        1 bytes
  4114 ;; Hardware stack levels used:    1
  4115 ;; Hardware stack levels required when called:    2
  4116 ;; This function calls:
  4117 ;;		Nothing
  4118 ;; This function is called by:
  4119 ;;		_main
  4120 ;; This function uses a non-reentrant model
  4121 ;;
  4122                           
  4123                           
  4124                           ;psect for function _CheckDisconnect
  4125  0713                     _CheckDisconnect:	
  4126                           
  4127                           ;beacon_functions.c: 118: PORTCbits.RC0 = 1;
  4128                           
  4129                           ;incstack = 0
  4130                           ; Regs used in _CheckDisconnect: [wreg+status,2]
  4131  0713  0020               	movlb	0	; select bank0
  4132  0714  140E               	bsf	14,0	;volatile
  4133                           
  4134                           ;beacon_functions.c: 119: _delay((unsigned long)((2)*(16000000/4000000.0)));
  4135  0715  3200               	nop2	;2 cycle nop
  4136  0716  3200               	nop2	;2 cycle nop
  4137  0717  3200               	nop2	;2 cycle nop
  4138  0718  3200               	nop2	;2 cycle nop
  4139                           
  4140                           ;beacon_functions.c: 121: if (PORTCbits.RC1)
  4141  0719  0020               	movlb	0	; select bank0
  4142  071A  1C8E               	btfss	14,1	;volatile
  4143  071B  2F1F               	goto	l1801
  4144                           
  4145                           ;beacon_functions.c: 122: transmitFlag = 1;
  4146  071C  01ED               	clrf	_transmitFlag
  4147  071D  0AED               	incf	_transmitFlag,f
  4148  071E  2F20               	goto	l1803
  4149  071F                     l1801:	
  4150                           
  4151                           ;beacon_functions.c: 123: else
  4152                           ;beacon_functions.c: 124: transmitFlag = 0;
  4153  071F  01ED               	clrf	_transmitFlag
  4154  0720                     l1803:	
  4155                           
  4156                           ;beacon_functions.c: 126: PORTCbits.RC0 = 0;
  4157  0720  100E               	bcf	14,0	;volatile
  4158  0721  0008               	return
  4159  0722                     __end_of_CheckDisconnect:	
  4160                           
  4161                           	psect	intentry
  4162  0004                     __pintentry:	
  4163 ;; *************** function _isr *****************
  4164 ;; Defined at:
  4165 ;;		line 20 in file "beacon_main.c"
  4166 ;; Parameters:    Size  Location     Type
  4167 ;;		None
  4168 ;; Auto vars:     Size  Location     Type
  4169 ;;		None
  4170 ;; Return value:  Size  Location     Type
  4171 ;;		None               void
  4172 ;; Registers used:
  4173 ;;		wreg, fsr1l, fsr1h, status,2, status,0, pclath, cstack
  4174 ;; Tracked objects:
  4175 ;;		On entry : 0/0
  4176 ;;		On exit  : 0/0
  4177 ;;		Unchanged: 0/0
  4178 ;; Data sizes:     COMMON   BANK0   BANK1   BANK2   BANK3   BANK4   BANK5
  4179 ;;      Params:         0       0       0       0       0       0       0
  4180 ;;      Locals:         0       0       0       0       0       0       0
  4181 ;;      Temps:          1       0       0       0       0       0       0
  4182 ;;      Totals:         1       0       0       0       0       0       0
  4183 ;;Total ram usage:        1 bytes
  4184 ;; Hardware stack levels used:    1
  4185 ;; Hardware stack levels required when called:    1
  4186 ;; This function calls:
  4187 ;;		_ReadBuffer
  4188 ;; This function is called by:
  4189 ;;		Interrupt level 1
  4190 ;; This function uses a non-reentrant model
  4191 ;;
  4192                           
  4193  0004                     _isr:	
  4194                           
  4195                           ;incstack = 0
  4196                           ; Regs used in _isr: [wreg+fsr1l+fsr1h+status,2+status,0+pclath+cstack]
  4197  0004  147E               	bsf	126,0	;set compiler interrupt flag
  4198  0005  3180               	pagesel	$
  4199  0006  0020               	movlb	0	; select bank0
  4200  0007  087F               	movf	127,w
  4201  0008  00F2               	movwf	??_isr
  4202                           
  4203                           ;beacon_main.c: 23: if(TMR0IF)
  4204  0009  1D0B               	btfss	11,2	;volatile
  4205  000A  2821               	goto	i1l1869
  4206                           
  4207                           ;beacon_main.c: 24: {
  4208                           ;beacon_main.c: 25: if(dacOutputFlag)
  4209  000B  087A               	movf	_dacOutputFlag,w
  4210  000C  1903               	btfsc	3,2
  4211  000D  281D               	goto	i1l1865
  4212                           
  4213                           ;beacon_main.c: 26: {
  4214                           ;beacon_main.c: 27: if(!((((start))==((end)))?(1):(0)))
  4215  000E  0021               	movlb	1	; select bank1
  4216  000F  085B               	movf	(_end+1)^(0+128),w
  4217  0010  0679               	xorwf	_start+1,w
  4218  0011  1D03               	skipz
  4219  0012  2815               	goto	u162_25
  4220  0013  085A               	movf	_end^(0+128),w
  4221  0014  0678               	xorwf	_start,w
  4222  0015                     u162_25:	
  4223  0015  1903               	skipnz
  4224  0016  281C               	goto	i1l315
  4225                           
  4226                           ;beacon_main.c: 28: {
  4227                           ;beacon_main.c: 29: DACCON1 = ReadBuffer();
  4228  0017  3186  26B5  3180   	fcall	_ReadBuffer
  4229  001A  0022               	movlb	2	; select bank2
  4230  001B  0099               	movwf	25	;volatile
  4231  001C                     i1l315:	
  4232  001C  0020               	movlb	0	; select bank0
  4233  001D                     i1l1865:	
  4234                           
  4235                           ;beacon_main.c: 30: }
  4236                           ;beacon_main.c: 31: }
  4237                           ;beacon_main.c: 33: TMR0 = (0x71);
  4238  001D  3071               	movlw	113
  4239  001E  0020               	movlb	0	; select bank0
  4240  001F  0095               	movwf	21	;volatile
  4241                           
  4242                           ;beacon_main.c: 34: TMR0IF = 0;
  4243  0020  110B               	bcf	11,2	;volatile
  4244  0021                     i1l1869:	
  4245                           
  4246                           ;beacon_main.c: 35: }
  4247                           ;beacon_main.c: 37: if(INTCONbits.IOCIE && IOCAFbits.IOCAF3)
  4248  0021  1D8B               	btfss	11,3	;volatile
  4249  0022  2835               	goto	i1l319
  4250  0023  0027               	movlb	7	; select bank7
  4251  0024  1D93               	btfss	19,3	;volatile
  4252  0025  2835               	goto	i1l319
  4253                           
  4254                           ;beacon_main.c: 38: {
  4255                           ;beacon_main.c: 39: IOCAFbits.IOCAF3 = 0;
  4256  0026  1193               	bcf	19,3	;volatile
  4257                           
  4258                           ;beacon_main.c: 41: if(IOCAPbits.IOCAP3 && PORTAbits.RA3)
  4259  0027  1D91               	btfss	17,3	;volatile
  4260  0028  282E               	goto	i1l317
  4261  0029  0020               	movlb	0	; select bank0
  4262  002A  1D8C               	btfss	12,3	;volatile
  4263  002B  282E               	goto	i1l317
  4264                           
  4265                           ;beacon_main.c: 42: {
  4266                           ;beacon_main.c: 43: playbackFlag = 1;
  4267  002C  01EC               	clrf	_playbackFlag
  4268  002D  0AEC               	incf	_playbackFlag,f
  4269  002E                     i1l317:	
  4270                           
  4271                           ;beacon_main.c: 44: }
  4272                           ;beacon_main.c: 45: if(IOCANbits.IOCAN3 && !PORTAbits.RA3)
  4273  002E  0027               	movlb	7	; select bank7
  4274  002F  1D92               	btfss	18,3	;volatile
  4275  0030  2835               	goto	i1l319
  4276  0031  0020               	movlb	0	; select bank0
  4277  0032  198C               	btfsc	12,3	;volatile
  4278  0033  2835               	goto	i1l319
  4279                           
  4280                           ;beacon_main.c: 46: {
  4281                           ;beacon_main.c: 47: playbackFlag = 0;
  4282  0034  01EC               	clrf	_playbackFlag
  4283  0035                     i1l319:	
  4284  0035  0872               	movf	??_isr,w
  4285  0036  0020               	movlb	0	; select bank0
  4286  0037  00FF               	movwf	127
  4287  0038  107E               	bcf	126,0	;clear compiler interrupt flag
  4288  0039  0009               	retfie
  4289  003A                     __end_of_isr:	
  4290                           
  4291                           	psect	text20
  4292  06B5                     __ptext20:	
  4293 ;; *************** function _ReadBuffer *****************
  4294 ;; Defined at:
  4295 ;;		line 383 in file "beacon_functions.c"
  4296 ;; Parameters:    Size  Location     Type
  4297 ;;		None
  4298 ;; Auto vars:     Size  Location     Type
  4299 ;;  read_data       1    1[COMMON] unsigned char 
  4300 ;; Return value:  Size  Location     Type
  4301 ;;                  1    wreg      unsigned char 
  4302 ;; Registers used:
  4303 ;;		wreg, fsr1l, fsr1h, status,2, status,0
  4304 ;; Tracked objects:
  4305 ;;		On entry : 0/0
  4306 ;;		On exit  : 0/0
  4307 ;;		Unchanged: 0/0
  4308 ;; Data sizes:     COMMON   BANK0   BANK1   BANK2   BANK3   BANK4   BANK5
  4309 ;;      Params:         0       0       0       0       0       0       0
  4310 ;;      Locals:         1       0       0       0       0       0       0
  4311 ;;      Temps:          1       0       0       0       0       0       0
  4312 ;;      Totals:         2       0       0       0       0       0       0
  4313 ;;Total ram usage:        2 bytes
  4314 ;; Hardware stack levels used:    1
  4315 ;; This function calls:
  4316 ;;		Nothing
  4317 ;; This function is called by:
  4318 ;;		_isr
  4319 ;; This function uses a non-reentrant model
  4320 ;;
  4321                           
  4322                           
  4323                           ;psect for function _ReadBuffer
  4324  06B5                     _ReadBuffer:	
  4325                           
  4326                           ;beacon_functions.c: 385: unsigned char read_data;
  4327                           ;beacon_functions.c: 387: read_data = buffer[start];
  4328                           
  4329                           ;incstack = 0
  4330                           ; Regs used in _ReadBuffer: [wreg+fsr1l+fsr1h+status,2+status,0]
  4331  06B5  0878               	movf	_start,w
  4332  06B6  3EA0               	addlw	_buffer& (0+255)
  4333  06B7  0086               	movwf	6
  4334  06B8  0187               	clrf	7
  4335  06B9  0801               	movf	1,w
  4336  06BA  00F0               	movwf	??_ReadBuffer
  4337  06BB  0870               	movf	??_ReadBuffer,w
  4338  06BC  00F1               	movwf	ReadBuffer@read_data
  4339                           
  4340                           ;beacon_functions.c: 388: if (start == 51)
  4341  06BD  3033               	movlw	51
  4342  06BE  0678               	xorwf	_start,w
  4343  06BF  0479               	iorwf	_start+1,w
  4344  06C0  1D03               	skipz
  4345  06C1  2EC5               	goto	i1l1817
  4346                           
  4347                           ;beacon_functions.c: 389: start = 0;
  4348  06C2  01F8               	clrf	_start
  4349  06C3  01F9               	clrf	_start+1
  4350  06C4  2EC9               	goto	i1l187
  4351  06C5                     i1l1817:	
  4352                           
  4353                           ;beacon_functions.c: 390: else
  4354                           ;beacon_functions.c: 391: start++;
  4355  06C5  3001               	movlw	1
  4356  06C6  07F8               	addwf	_start,f
  4357  06C7  3000               	movlw	0
  4358  06C8  3DF9               	addwfc	_start+1,f
  4359  06C9                     i1l187:	
  4360                           
  4361                           ;beacon_functions.c: 392: return read_data;
  4362  06C9  0871               	movf	ReadBuffer@read_data,w
  4363  06CA  0008               	return
  4364  06CB                     __end_of_ReadBuffer:	
  4365  007E                     btemp	set	126	;btemp
  4366  007E                     pic14e$flags	set	126
  4367  007E                     wtemp	set	126
  4368  007E                     wtemp0	set	126
  4369  0080                     wtemp1	set	128
  4370  0082                     wtemp2	set	130
  4371  0084                     wtemp3	set	132
  4372  0086                     wtemp4	set	134
  4373  0088                     wtemp5	set	136
  4374  007F                     wtemp6	set	127
  4375  007E                     ttemp	set	126
  4376  007E                     ttemp0	set	126
  4377  0081                     ttemp1	set	129
  4378  0084                     ttemp2	set	132
  4379  0087                     ttemp3	set	135
  4380  007F                     ttemp4	set	127
  4381  007E                     ltemp	set	126
  4382  007E                     ltemp0	set	126
  4383  0082                     ltemp1	set	130
  4384  0086                     ltemp2	set	134
  4385  0080                     ltemp3	set	128


Data Sizes:
    Strings     0
    Constant    0
    Data        0
    BSS         67
    Persistent  0
    Stack       0

Auto Spaces:
    Space          Size  Autos    Used
    COMMON           14      8      11
    BANK0            80     75      78
    BANK1            80      4      65
    BANK2            80      0       0
    BANK3            80      0       0
    BANK4            80      0       0
    BANK5            80      0       0

Pointer List with Targets:

    None.

Critical Paths under _main in COMMON

    _GPStoAudio->___awmod
    ___awdiv->___awmod
    _ReadOverheadSPI->_WriteSPI
    _ReadStatusSPI->_WriteSPI

Critical Paths under _isr in COMMON

    _isr->_ReadBuffer

Critical Paths under _main in BANK0

    _main->_PlaybackMode
    _TransmitMode->_PlaybackMode
    _PlaybackMode->_GPStoAudio
    _GPStoAudio->_PlayAddress
    ___awdiv->___awmod
    _PlayAddress->_ReadOverheadSPI
    _ReadOverheadSPI->_ReadStatusSPI

Critical Paths under _isr in BANK0

    None.

Critical Paths under _main in BANK1

    None.

Critical Paths under _isr in BANK1

    None.

Critical Paths under _main in BANK2

    None.

Critical Paths under _isr in BANK2

    None.

Critical Paths under _main in BANK3

    None.

Critical Paths under _isr in BANK3

    None.

Critical Paths under _main in BANK4

    None.

Critical Paths under _isr in BANK4

    None.

Critical Paths under _main in BANK5

    None.

Critical Paths under _isr in BANK5

    None.

Call Graph Tables:

 ---------------------------------------------------------------------------------
 (Depth) Function   	        Calls       Base Space   Used Autos Params    Refs
 ---------------------------------------------------------------------------------
 (0) _main                                                 4     0      4   14976
                                              0 BANK1      4     0      4
                    _CheckDisconnect
                            _InitCLK
                            _InitDAC
                           _InitGPIO
                            _InitSPI
                         _InitTimer0
                       _InitWatchdog
                       _PlaybackMode
                       _TransmitMode
 ---------------------------------------------------------------------------------
 (1) _TransmitMode                                         0     0      0    7488
                       _PlaybackMode
 ---------------------------------------------------------------------------------
 (2) _PlaybackMode                                        14    14      0    7488
                                             61 BANK0     14    14      0
                         _GPStoAudio
                            _InitSPI
                    _ReadOverheadSPI
                            _ReadSPI
                        _WriteBuffer
 ---------------------------------------------------------------------------------
 (3) _InitSPI                                              0     0      0       0
 ---------------------------------------------------------------------------------
 (3) _GPStoAudio                                          26    26      0    6678
                                             35 BANK0     26    26      0
                        _PlayAddress
                            ___awdiv
                            ___awmod
 ---------------------------------------------------------------------------------
 (4) ___awmod                                              7     3      4    1343
                                              3 COMMON     5     1      4
                                              0 BANK0      2     2      0
 ---------------------------------------------------------------------------------
 (4) ___awdiv                                              9     5      4    1355
                                              2 BANK0      9     5      4
                            ___awmod (ARG)
 ---------------------------------------------------------------------------------
 (4) _PlayAddress                                         18    10      8    3132
                                             17 BANK0     18    10      8
                    _ReadOverheadSPI
                            _ReadSPI
                        _WriteBuffer
 ---------------------------------------------------------------------------------
 (3) _WriteBuffer                                          2     2      0      22
                                              3 COMMON     2     2      0
 ---------------------------------------------------------------------------------
 (3) _ReadOverheadSPI                                     15    11      4     569
                                              2 BANK0     15    11      4
                      _ReadStatusSPI
                           _WriteSPI
 ---------------------------------------------------------------------------------
 (4) _ReadStatusSPI                                        2     2      0     102
                                              0 BANK0      2     2      0
                            _ReadSPI
                           _WriteSPI
 ---------------------------------------------------------------------------------
 (4) _WriteSPI                                             5     5      0      34
                                              3 COMMON     5     5      0
 ---------------------------------------------------------------------------------
 (3) _ReadSPI                                              2     2      0      34
                                              3 COMMON     2     2      0
 ---------------------------------------------------------------------------------
 (1) _InitWatchdog                                         0     0      0       0
 ---------------------------------------------------------------------------------
 (1) _InitTimer0                                           0     0      0       0
 ---------------------------------------------------------------------------------
 (1) _InitGPIO                                             0     0      0       0
 ---------------------------------------------------------------------------------
 (1) _InitDAC                                              0     0      0       0
 ---------------------------------------------------------------------------------
 (1) _InitCLK                                              0     0      0       0
 ---------------------------------------------------------------------------------
 (1) _CheckDisconnect                                      1     1      0       0
                                              3 COMMON     1     1      0
 ---------------------------------------------------------------------------------
 Estimated maximum stack depth 4
 ---------------------------------------------------------------------------------
 (Depth) Function   	        Calls       Base Space   Used Autos Params    Refs
 ---------------------------------------------------------------------------------
 (8) _isr                                                  1     1      0      23
                                              2 COMMON     1     1      0
                         _ReadBuffer
 ---------------------------------------------------------------------------------
 (9) _ReadBuffer                                           2     2      0      23
                                              0 COMMON     2     2      0
 ---------------------------------------------------------------------------------
 Estimated maximum stack depth 9
 ---------------------------------------------------------------------------------

 Call Graph Graphs:

 _main (ROOT)
   _CheckDisconnect
   _InitCLK
   _InitDAC
   _InitGPIO
   _InitSPI
   _InitTimer0
   _InitWatchdog
   _PlaybackMode
     _GPStoAudio
       _PlayAddress
         _ReadOverheadSPI
           _ReadStatusSPI
             _ReadSPI
             _WriteSPI
           _WriteSPI
         _ReadSPI
         _WriteBuffer
       ___awdiv
         ___awmod (ARG)
       ___awmod
     _InitSPI
     _ReadOverheadSPI
       _ReadStatusSPI
         _ReadSPI
         _WriteSPI
       _WriteSPI
     _ReadSPI
     _WriteBuffer
   _TransmitMode
     _PlaybackMode
       _GPStoAudio
         _PlayAddress
           _ReadOverheadSPI
             _ReadStatusSPI
               _ReadSPI
               _WriteSPI
             _WriteSPI
           _ReadSPI
           _WriteBuffer
         ___awdiv
           ___awmod (ARG)
         ___awmod
       _InitSPI
       _ReadOverheadSPI
         _ReadStatusSPI
           _ReadSPI
           _WriteSPI
         _WriteSPI
       _ReadSPI
       _WriteBuffer

 _isr (ROOT)
   _ReadBuffer

 Address spaces:
Name               Size   Autos  Total    Cost      Usage
BIGRAM             1E0      0       0       0        0.0%
EEDATA             100      0       0       0        0.0%
NULL                 0      0       0       0        0.0%
CODE                 0      0       0       0        0.0%
BITCOMMON            E      0       0       1        0.0%
BITSFR0              0      0       0       1        0.0%
SFR0                 0      0       0       1        0.0%
COMMON               E      8       B       2       78.6%
BITSFR1              0      0       0       2        0.0%
SFR1                 0      0       0       2        0.0%
BITSFR2              0      0       0       3        0.0%
SFR2                 0      0       0       3        0.0%
STACK                0      0       0       3        0.0%
BITBANK0            50      0       0       4        0.0%
BITSFR3              0      0       0       4        0.0%
SFR3                 0      0       0       4        0.0%
BANK0               50     4B      4E       5       97.5%
BITSFR4              0      0       0       5        0.0%
SFR4                 0      0       0       5        0.0%
BITSFR5              0      0       0       6        0.0%
SFR5                 0      0       0       6        0.0%
ABS                  0      0      9A       6        0.0%
BITBANK1            50      0       0       7        0.0%
BITSFR6              0      0       0       7        0.0%
SFR6                 0      0       0       7        0.0%
BANK1               50      4      41       8       81.3%
BITSFR7              0      0       0       8        0.0%
SFR7                 0      0       0       8        0.0%
BITBANK2            50      0       0       9        0.0%
BITSFR8              0      0       0       9        0.0%
SFR8                 0      0       0       9        0.0%
BANK2               50      0       0      10        0.0%
BITSFR9              0      0       0      10        0.0%
SFR9                 0      0       0      10        0.0%
BITBANK3            50      0       0      11        0.0%
BITSFR10             0      0       0      11        0.0%
SFR10                0      0       0      11        0.0%
BANK3               50      0       0      12        0.0%
BITSFR11             0      0       0      12        0.0%
SFR11                0      0       0      12        0.0%
BITBANK4            50      0       0      13        0.0%
BITSFR12             0      0       0      13        0.0%
SFR12                0      0       0      13        0.0%
BANK4               50      0       0      14        0.0%
BITSFR13             0      0       0      14        0.0%
SFR13                0      0       0      14        0.0%
BITBANK5            50      0       0      15        0.0%
BITSFR14             0      0       0      15        0.0%
SFR14                0      0       0      15        0.0%
BANK5               50      0       0      16        0.0%
BITSFR15             0      0       0      16        0.0%
SFR15                0      0       0      16        0.0%
BITSFR16             0      0       0      17        0.0%
SFR16                0      0       0      17        0.0%
DATA                 0      0      9A      17        0.0%
BITSFR17             0      0       0      18        0.0%
SFR17                0      0       0      18        0.0%
BITSFR18             0      0       0      19        0.0%
SFR18                0      0       0      19        0.0%
BITSFR19             0      0       0      20        0.0%
SFR19                0      0       0      20        0.0%
BITSFR20             0      0       0      21        0.0%
SFR20                0      0       0      21        0.0%
BITSFR21             0      0       0      22        0.0%
SFR21                0      0       0      22        0.0%
BITSFR22             0      0       0      23        0.0%
SFR22                0      0       0      23        0.0%
BITSFR23             0      0       0      24        0.0%
SFR23                0      0       0      24        0.0%
BITSFR24             0      0       0      25        0.0%
SFR24                0      0       0      25        0.0%
BITSFR25             0      0       0      26        0.0%
SFR25                0      0       0      26        0.0%
BITSFR26             0      0       0      27        0.0%
SFR26                0      0       0      27        0.0%
BITSFR27             0      0       0      28        0.0%
SFR27                0      0       0      28        0.0%
BITSFR28             0      0       0      29        0.0%
SFR28                0      0       0      29        0.0%
BITSFR29             0      0       0      30        0.0%
SFR29                0      0       0      30        0.0%
BITSFR30             0      0       0      31        0.0%
SFR30                0      0       0      31        0.0%
BITSFR31             0      0       0      32        0.0%
SFR31                0      0       0      32        0.0%


Microchip Technology PIC Macro Assembler V1.33 build 59893 
Symbol Table                                                                                   Tue Nov 04 21:11:45 2014

                _SSPSTATbits 0214                 ___awdiv@sign 0028         __size_of_WriteBuffer 0017  
                __CFG_LVP$ON 0000                          l130 054E                          l163 0731  
                        l147 04BB                          l157 06FE                          l177 0593  
                        _GIE 005F                          _PS0 04A8                          _PS1 04A9  
                        _PS2 04AA                          _PSA 04AB                          _end 00DA  
                        _isr 0004                 ___awmod@sign 0021                          wreg 0009  
                       l2013 05C0                         l2031 05E6                         l2023 05C8  
                       l2007 05B5                         l2025 05D4                         l2035 05EF  
                       l2051 0609                         l2203 03C0                         l1405 06B0  
                       l2141 01ED                         l2133 01A8                         l2039 05F7  
                       l2063 0616                         l2055 0610                         l2151 0256  
                       l2143 0202                         l2065 0622                         l2073 0637  
                       l2161 02BF                         l2153 026B                         l2145 0217  
                       l2137 01CA                         l2233 047E                         l2241 049C  
                       l2171 0328                         l2163 02D4                         l2155 0280  
                       l2147 022C                         l2139 01D8                         l2251 04BD  
                       l2077 063F                         l2069 062E                         l2165 02E9  
                       l2157 0295                         l2149 0241                         l2261 04D2  
                       l2229 0460                         l2341 0676                         l2325 0660  
                       l2167 02FE                         l2159 02AA                         l2175 033D  
                       l1801 071F                         l2169 0313                         l2177 0377  
                       l2249 04A7                         l2337 066F                         l1803 0720  
                       l2187 0388                         l2179 037C                         l2259 04C8  
                       l1961 0582                         l1957 0584                         l1975 04F3  
                       l1995 053A                         l1979 0511                         l1987 052F  
                       ?_isr 0070                 _transmitFlag 006D       __size_of_ReadStatusSPI 0011  
                       u2025 0619                         u2045 0628                         u2055 062F  
                       u2215 0475                         u2165 0391                         u2325 04CF  
                       u2273 04B9                         u2185 03D9                         u2195 0400  
                       u1825 0508                         u2457 01AE                         u1755 055D  
                       u2467 01D1                         u1765 0571                         u1925 05CB  
                       u1945 05D5                         u1883 054C                         u1955 05DF  
                       _PEIE 005E                         u1965 05E7                         _TMR0 0015  
                       _main 0646                         fsr0h 0005                         fsr1h 0007  
                       fsr0l 0004                         indf0 0000                         indf1 0001  
                       fsr1l 0006                         btemp 007E                         ltemp 007E  
                       start 003A                         ttemp 007E                         wtemp 007E  
              __CFG_MCLRE$ON 0000              __end_of_InitDAC 06DE              __end_of_InitCLK 0743  
            __end_of_InitSPI 06F0              __end_of_ReadSPI 073B                        ??_isr 0072  
              ?_InitWatchdog 0070        ReadStatusSPI@dataRead 0021                  ?_GPStoAudio 0070  
                      ?_main 00DD              __end_of___awdiv 05FE              __end_of___awmod 0646  
            ___awdiv@divisor 0022                        _LATC2 0872                        _IOCAF 0393  
                      i1l315 001C                        i1l317 002E                        i1l319 0035  
                      i1l187 06C9              ___awdiv@counter 0027                        _start 0078  
             __CFG_BOREN$OFF 0000                        ltemp0 007E                        ltemp1 0082  
                      ltemp2 0086                        ltemp3 0080                        ttemp0 007E  
                      ttemp1 0081                        ttemp2 0084                        ttemp3 0087  
                      ttemp4 007F                        status 0003                        wtemp0 007E  
                      wtemp1 0080                        wtemp2 0082                        wtemp3 0084  
                      wtemp4 0086                        wtemp5 0088                        wtemp6 007F  
             WriteSPI@buffer 0075     __size_of_ReadOverheadSPI 0058                ??_PlayAddress 0039  
                 _ReadBuffer 06B5              __initialization 003C                   _InitTimer0 0722  
               __end_of_main 067C             __end_of_InitGPIO 069E               ??_InitWatchdog 0073  
              _ReadStatusSPI 0702                       ??_main 0078              ReadSPI@dataByte 0074  
             __CFG_PLLEN$OFF 0000     PlaybackMode@curr_address 0061             ___awdiv@dividend 0024  
            _CheckDisconnect 0713             __end_of_WriteSPI 0702                       i1l1817 06C5  
                     i1l1865 001D                       i1l1869 0021                       u162_25 0015  
                     _TMR0IE 005D                       _TMR0IF 005A                       _TMR0CS 04AD  
                     _SSPBUF 0211          __size_of_GPStoAudio 0348                    ??_InitDAC 0073  
                  ??_InitCLK 0073                    ??_InitSPI 0073                    ??_ReadSPI 0073  
             ?_ReadStatusSPI 0070                    ??___awdiv 0026                    ??___awmod 0077  
                 _NorthSouth 006B                       _buffer 00A0          __end_of_PlayAddress 0552  
           ___awdiv@quotient 0029              ___awmod@divisor 0073              ___awmod@counter 0020  
            _PlayAddress$633 0041                _dacOutputFlag 007A                ?_PlaybackMode 0070  
    __end_of__initialization 0049      PlayAddress@startAddress 0031                  ?_ReadBuffer 0070  
                ?_InitTimer0 0070               __pcstackCOMMON 0070            ??_ReadOverheadSPI 0026  
    __end_of_CheckDisconnect 0722               ??_PlaybackMode 005D         __end_of_InitWatchdog 0751  
                 __pbssBANK0 006B                   __pbssBANK1 00A0                    ?_InitGPIO 0070  
                _PlayAddress 04DC              ??_ReadStatusSPI 0020                   __pmaintext 0646  
              ??_WriteBuffer 0073                   __pintentry 0004                      _DACCON1 0119  
               ??_GPStoAudio 0043                    ?_WriteSPI 0070                  GPStoAudio@x 005B  
        __size_of_ReadBuffer 0016          __size_of_InitTimer0 000D                   ??_InitGPIO 0073  
                    _InitDAC 06CB                      _InitCLK 073B                      _InitSPI 06DE  
                    _ReadSPI 072F           __end_of_GPStoAudio 0395                      ___awdiv 05AA  
                    ___awmod 05FE                   ??_WriteSPI 0073                      __ptext0 0000  
                    __ptext1 0743                      __ptext2 0395                      __ptext3 06DE  
                    __ptext4 004D                      __ptext5 05FE                      __ptext6 05AA  
                    __ptext7 04DC                      __ptext8 069E                      __ptext9 0552  
        __end_of_WriteBuffer 06B5                 __size_of_isr 0036             ?_CheckDisconnect 0070  
           ___awmod@dividend 0075                    _IOCAFbits 0393                    _IOCANbits 0392  
                  _IOCAPbits 0391                      clrloop0 0752         end_of_initialization 0049  
           _PlaybackMode$646 0065              WriteBuffer@data 0074  ReadOverheadSPI@addressBytes 002E  
           WriteSPI@databyte 0077         __end_of_PlaybackMode 04DC                    _PORTAbits 000C  
                  _PORTBbits 000D                    _PORTCbits 000E                ?_TransmitMode 0070  
           __CFG_FOSC$INTOSC 0000        __size_of_InitWatchdog 0007                    _TRISAbits 008C  
                  _TRISBbits 008D                    _TRISCbits 008E                  _DACCON0bits 0118  
            _ReadOverheadSPI 0552                 ??_ReadBuffer 0070                 ??_InitTimer0 0073  
                _WriteBuffer 069E                 _InitWatchdog 074A               ??_TransmitMode 0078  
        start_initialization 003C                  __end_of_isr 003A           __end_of_ReadBuffer 06CB  
         __end_of_InitTimer0 072F            __size_of_InitGPIO 0022                    _Longitude 00D7  
               ?_PlayAddress 0031            __size_of_WriteSPI 0012                  __pbssCOMMON 0078  
                  ___latbits 0001                __pcstackBANK0 0020                __pcstackBANK1 00DD  
    __end_of_ReadOverheadSPI 05AA                     ?_InitDAC 0070                     ?_InitCLK 0070  
                   ?_InitSPI 0070                     ?_ReadSPI 0070        __size_of_PlaybackMode 0147  
      __end_of_ReadStatusSPI 0713                     ?___awdiv 0022                     ?___awmod 0073  
           __CFG_WDTE$SWDTEN 0000                 _PlaybackMode 0395                    clear_ram0 0751  
       __end_of_TransmitMode 074A                     _PIR1bits 0011       ReadOverheadSPI@address 0022  
                   _EastWest 00DC             ?_ReadOverheadSPI 0022                  _OPA1CONbits 0511  
                   _InitGPIO 067C     __size_of_CheckDisconnect 000F                     _Latitude 00D4  
           __size_of_InitDAC 0013             __size_of_InitCLK 0008             __size_of_InitSPI 0012  
           __size_of_ReadSPI 000C                 _playbackFlag 006C         __size_of_PlayAddress 0076  
               ?_WriteBuffer 0070             __size_of___awdiv 0054             __size_of___awmod 0048  
                   _WriteSPI 06F0                   _ANSELAbits 018C          ReadBuffer@read_data 0071  
                   __ptext10 0702                     __ptext11 06F0                     __ptext20 06B5  
                   __ptext12 072F                     __ptext13 074A                     __ptext14 0722  
                   __ptext15 067C                     __ptext16 06CB                     __ptext17 073B  
                   __ptext18 0713                __size_of_main 0036      PlayAddress@curr_address 003D  
      PlayAddress@endAddress 0035                     main@argc 00DD                     main@argv 00DF  
                 _INTCONbits 000B                  pic14e$flags 007E                     intlevel1 0000  
      __size_of_TransmitMode 0007     ReadOverheadSPI@StatusReg 002C              GPStoAudio@datas 0046  
          __CFG_CLKOUTEN$OFF 0000                   _OSCCONbits 0099            ??_CheckDisconnect 0073  
                 _GPStoAudio 004D                 _TransmitMode 0743      PlaybackMode@end_address 0067  
                _SSPCON1bits 0215                   _WDTCONbits 0097  
